Archive member included because of file (symbol)

/home/gombe/workspace/machikania/origdev/pic32/compiler/pic32-tools/bin/../lib/gcc/pic32mx/4.5.2/../../../../pic32mx/lib/libm.a(lib_a-s_cos.o)
                              obj/matrix4.o (cos)
/home/gombe/workspace/machikania/origdev/pic32/compiler/pic32-tools/bin/../lib/gcc/pic32mx/4.5.2/../../../../pic32mx/lib/libm.a(lib_a-sf_cos.o)
                              obj/matrix4.o (cosf)
/home/gombe/workspace/machikania/origdev/pic32/compiler/pic32-tools/bin/../lib/gcc/pic32mx/4.5.2/../../../../pic32mx/lib/libm.a(lib_a-sf_sin.o)
                              obj/matrix4.o (sinf)
/home/gombe/workspace/machikania/origdev/pic32/compiler/pic32-tools/bin/../lib/gcc/pic32mx/4.5.2/../../../../pic32mx/lib/libm.a(lib_a-s_sin.o)
                              obj/matrix4.o (sin)
/home/gombe/workspace/machikania/origdev/pic32/compiler/pic32-tools/bin/../lib/gcc/pic32mx/4.5.2/../../../../pic32mx/lib/libm.a(lib_a-s_tan.o)
                              obj/matrix4.o (tan)
/home/gombe/workspace/machikania/origdev/pic32/compiler/pic32-tools/bin/../lib/gcc/pic32mx/4.5.2/../../../../pic32mx/lib/libm.a(lib_a-ef_rem_pio2.o)
                              /home/gombe/workspace/machikania/origdev/pic32/compiler/pic32-tools/bin/../lib/gcc/pic32mx/4.5.2/../../../../pic32mx/lib/libm.a(lib_a-sf_cos.o) (__ieee754_rem_pio2f)
/home/gombe/workspace/machikania/origdev/pic32/compiler/pic32-tools/bin/../lib/gcc/pic32mx/4.5.2/../../../../pic32mx/lib/libm.a(lib_a-e_rem_pio2.o)
                              /home/gombe/workspace/machikania/origdev/pic32/compiler/pic32-tools/bin/../lib/gcc/pic32mx/4.5.2/../../../../pic32mx/lib/libm.a(lib_a-s_cos.o) (__ieee754_rem_pio2)
/home/gombe/workspace/machikania/origdev/pic32/compiler/pic32-tools/bin/../lib/gcc/pic32mx/4.5.2/../../../../pic32mx/lib/libm.a(lib_a-k_cos.o)
                              /home/gombe/workspace/machikania/origdev/pic32/compiler/pic32-tools/bin/../lib/gcc/pic32mx/4.5.2/../../../../pic32mx/lib/libm.a(lib_a-s_cos.o) (__kernel_cos)
/home/gombe/workspace/machikania/origdev/pic32/compiler/pic32-tools/bin/../lib/gcc/pic32mx/4.5.2/../../../../pic32mx/lib/libm.a(lib_a-kf_cos.o)
                              /home/gombe/workspace/machikania/origdev/pic32/compiler/pic32-tools/bin/../lib/gcc/pic32mx/4.5.2/../../../../pic32mx/lib/libm.a(lib_a-sf_cos.o) (__kernel_cosf)
/home/gombe/workspace/machikania/origdev/pic32/compiler/pic32-tools/bin/../lib/gcc/pic32mx/4.5.2/../../../../pic32mx/lib/libm.a(lib_a-kf_rem_pio2.o)
                              /home/gombe/workspace/machikania/origdev/pic32/compiler/pic32-tools/bin/../lib/gcc/pic32mx/4.5.2/../../../../pic32mx/lib/libm.a(lib_a-ef_rem_pio2.o) (__kernel_rem_pio2f)
/home/gombe/workspace/machikania/origdev/pic32/compiler/pic32-tools/bin/../lib/gcc/pic32mx/4.5.2/../../../../pic32mx/lib/libm.a(lib_a-kf_sin.o)
                              /home/gombe/workspace/machikania/origdev/pic32/compiler/pic32-tools/bin/../lib/gcc/pic32mx/4.5.2/../../../../pic32mx/lib/libm.a(lib_a-sf_cos.o) (__kernel_sinf)
/home/gombe/workspace/machikania/origdev/pic32/compiler/pic32-tools/bin/../lib/gcc/pic32mx/4.5.2/../../../../pic32mx/lib/libm.a(lib_a-k_rem_pio2.o)
                              /home/gombe/workspace/machikania/origdev/pic32/compiler/pic32-tools/bin/../lib/gcc/pic32mx/4.5.2/../../../../pic32mx/lib/libm.a(lib_a-e_rem_pio2.o) (__kernel_rem_pio2)
/home/gombe/workspace/machikania/origdev/pic32/compiler/pic32-tools/bin/../lib/gcc/pic32mx/4.5.2/../../../../pic32mx/lib/libm.a(lib_a-k_sin.o)
                              /home/gombe/workspace/machikania/origdev/pic32/compiler/pic32-tools/bin/../lib/gcc/pic32mx/4.5.2/../../../../pic32mx/lib/libm.a(lib_a-s_cos.o) (__kernel_sin)
/home/gombe/workspace/machikania/origdev/pic32/compiler/pic32-tools/bin/../lib/gcc/pic32mx/4.5.2/../../../../pic32mx/lib/libm.a(lib_a-k_tan.o)
                              /home/gombe/workspace/machikania/origdev/pic32/compiler/pic32-tools/bin/../lib/gcc/pic32mx/4.5.2/../../../../pic32mx/lib/libm.a(lib_a-s_tan.o) (__kernel_tan)
/home/gombe/workspace/machikania/origdev/pic32/compiler/pic32-tools/bin/../lib/gcc/pic32mx/4.5.2/../../../../pic32mx/lib/libm.a(lib_a-s_fabs.o)
                              /home/gombe/workspace/machikania/origdev/pic32/compiler/pic32-tools/bin/../lib/gcc/pic32mx/4.5.2/../../../../pic32mx/lib/libm.a(lib_a-e_rem_pio2.o) (fabs)
/home/gombe/workspace/machikania/origdev/pic32/compiler/pic32-tools/bin/../lib/gcc/pic32mx/4.5.2/../../../../pic32mx/lib/libm.a(lib_a-sf_fabs.o)
                              /home/gombe/workspace/machikania/origdev/pic32/compiler/pic32-tools/bin/../lib/gcc/pic32mx/4.5.2/../../../../pic32mx/lib/libm.a(lib_a-ef_rem_pio2.o) (fabsf)
/home/gombe/workspace/machikania/origdev/pic32/compiler/pic32-tools/bin/../lib/gcc/pic32mx/4.5.2/../../../../pic32mx/lib/libm.a(lib_a-sf_floor.o)
                              /home/gombe/workspace/machikania/origdev/pic32/compiler/pic32-tools/bin/../lib/gcc/pic32mx/4.5.2/../../../../pic32mx/lib/libm.a(lib_a-kf_rem_pio2.o) (floorf)
/home/gombe/workspace/machikania/origdev/pic32/compiler/pic32-tools/bin/../lib/gcc/pic32mx/4.5.2/../../../../pic32mx/lib/libm.a(lib_a-s_floor.o)
                              /home/gombe/workspace/machikania/origdev/pic32/compiler/pic32-tools/bin/../lib/gcc/pic32mx/4.5.2/../../../../pic32mx/lib/libm.a(lib_a-k_rem_pio2.o) (floor)
/home/gombe/workspace/machikania/origdev/pic32/compiler/pic32-tools/bin/../lib/gcc/pic32mx/4.5.2/../../../../pic32mx/lib/libm.a(lib_a-sf_scalbn.o)
                              /home/gombe/workspace/machikania/origdev/pic32/compiler/pic32-tools/bin/../lib/gcc/pic32mx/4.5.2/../../../../pic32mx/lib/libm.a(lib_a-kf_rem_pio2.o) (scalbnf)
/home/gombe/workspace/machikania/origdev/pic32/compiler/pic32-tools/bin/../lib/gcc/pic32mx/4.5.2/../../../../pic32mx/lib/libm.a(lib_a-s_scalbn.o)
                              /home/gombe/workspace/machikania/origdev/pic32/compiler/pic32-tools/bin/../lib/gcc/pic32mx/4.5.2/../../../../pic32mx/lib/libm.a(lib_a-k_rem_pio2.o) (scalbn)
/home/gombe/workspace/machikania/origdev/pic32/compiler/pic32-tools/bin/../lib/gcc/pic32mx/4.5.2/../../../../pic32mx/lib/libm.a(lib_a-s_copysign.o)
                              /home/gombe/workspace/machikania/origdev/pic32/compiler/pic32-tools/bin/../lib/gcc/pic32mx/4.5.2/../../../../pic32mx/lib/libm.a(lib_a-s_scalbn.o) (copysign)
/home/gombe/workspace/machikania/origdev/pic32/compiler/pic32-tools/bin/../lib/gcc/pic32mx/4.5.2/../../../../pic32mx/lib/libm.a(lib_a-sf_copysign.o)
                              /home/gombe/workspace/machikania/origdev/pic32/compiler/pic32-tools/bin/../lib/gcc/pic32mx/4.5.2/../../../../pic32mx/lib/libm.a(lib_a-sf_scalbn.o) (copysignf)
/home/gombe/workspace/machikania/origdev/pic32/compiler/pic32-tools/bin/../lib/gcc/pic32mx/4.5.2/libgcc.a(_divdi3.o)
                              obj/matrix4.o (__divdi3)
/home/gombe/workspace/machikania/origdev/pic32/compiler/pic32-tools/bin/../lib/gcc/pic32mx/4.5.2/libgcc.a(addsf3.o)
                              obj/matrix4.o (__addsf3)
/home/gombe/workspace/machikania/origdev/pic32/compiler/pic32-tools/bin/../lib/gcc/pic32mx/4.5.2/libgcc.a(eqsf2.o)
                              /home/gombe/workspace/machikania/origdev/pic32/compiler/pic32-tools/bin/../lib/gcc/pic32mx/4.5.2/../../../../pic32mx/lib/libm.a(lib_a-ef_rem_pio2.o) (__eqsf2)
/home/gombe/workspace/machikania/origdev/pic32/compiler/pic32-tools/bin/../lib/gcc/pic32mx/4.5.2/libgcc.a(gesf2.o)
                              /home/gombe/workspace/machikania/origdev/pic32/compiler/pic32-tools/bin/../lib/gcc/pic32mx/4.5.2/../../../../pic32mx/lib/libm.a(lib_a-kf_rem_pio2.o) (__gesf2)
/home/gombe/workspace/machikania/origdev/pic32/compiler/pic32-tools/bin/../lib/gcc/pic32mx/4.5.2/libgcc.a(mulsf3.o)
                              obj/matrix4.o (__mulsf3)
/home/gombe/workspace/machikania/origdev/pic32/compiler/pic32-tools/bin/../lib/gcc/pic32mx/4.5.2/libgcc.a(subsf3.o)
                              /home/gombe/workspace/machikania/origdev/pic32/compiler/pic32-tools/bin/../lib/gcc/pic32mx/4.5.2/../../../../pic32mx/lib/libm.a(lib_a-sf_cos.o) (__subsf3)
/home/gombe/workspace/machikania/origdev/pic32/compiler/pic32-tools/bin/../lib/gcc/pic32mx/4.5.2/libgcc.a(fixsfsi.o)
                              obj/matrix4.o (__fixsfsi)
/home/gombe/workspace/machikania/origdev/pic32/compiler/pic32-tools/bin/../lib/gcc/pic32mx/4.5.2/libgcc.a(floatsisf.o)
                              obj/matrix4.o (__floatsisf)
/home/gombe/workspace/machikania/origdev/pic32/compiler/pic32-tools/bin/../lib/gcc/pic32mx/4.5.2/libgcc.a(floatunsisf.o)
                              obj/matrix4.o (__floatunsisf)
/home/gombe/workspace/machikania/origdev/pic32/compiler/pic32-tools/bin/../lib/gcc/pic32mx/4.5.2/libgcc.a(adddf3.o)
                              obj/matrix4.o (__adddf3)
/home/gombe/workspace/machikania/origdev/pic32/compiler/pic32-tools/bin/../lib/gcc/pic32mx/4.5.2/libgcc.a(divdf3.o)
                              obj/matrix4.o (__divdf3)
/home/gombe/workspace/machikania/origdev/pic32/compiler/pic32-tools/bin/../lib/gcc/pic32mx/4.5.2/libgcc.a(eqdf2.o)
                              /home/gombe/workspace/machikania/origdev/pic32/compiler/pic32-tools/bin/../lib/gcc/pic32mx/4.5.2/../../../../pic32mx/lib/libm.a(lib_a-e_rem_pio2.o) (__eqdf2)
/home/gombe/workspace/machikania/origdev/pic32/compiler/pic32-tools/bin/../lib/gcc/pic32mx/4.5.2/libgcc.a(gedf2.o)
                              /home/gombe/workspace/machikania/origdev/pic32/compiler/pic32-tools/bin/../lib/gcc/pic32mx/4.5.2/../../../../pic32mx/lib/libm.a(lib_a-k_rem_pio2.o) (__gedf2)
/home/gombe/workspace/machikania/origdev/pic32/compiler/pic32-tools/bin/../lib/gcc/pic32mx/4.5.2/libgcc.a(muldf3.o)
                              obj/matrix4.o (__muldf3)
/home/gombe/workspace/machikania/origdev/pic32/compiler/pic32-tools/bin/../lib/gcc/pic32mx/4.5.2/libgcc.a(subdf3.o)
                              /home/gombe/workspace/machikania/origdev/pic32/compiler/pic32-tools/bin/../lib/gcc/pic32mx/4.5.2/../../../../pic32mx/lib/libm.a(lib_a-s_cos.o) (__subdf3)
/home/gombe/workspace/machikania/origdev/pic32/compiler/pic32-tools/bin/../lib/gcc/pic32mx/4.5.2/libgcc.a(fixdfsi.o)
                              obj/matrix4.o (__fixdfsi)
/home/gombe/workspace/machikania/origdev/pic32/compiler/pic32-tools/bin/../lib/gcc/pic32mx/4.5.2/libgcc.a(floatsidf.o)
                              obj/matrix4.o (__floatsidf)
/home/gombe/workspace/machikania/origdev/pic32/compiler/pic32-tools/bin/../lib/gcc/pic32mx/4.5.2/libgcc.a(floatunsidf.o)
                              obj/matrix4.o (__floatunsidf)
/home/gombe/workspace/machikania/origdev/pic32/compiler/pic32-tools/bin/../lib/gcc/pic32mx/4.5.2/libgcc.a(extendsfdf2.o)
                              obj/matrix4.o (__extendsfdf2)
/home/gombe/workspace/machikania/origdev/pic32/compiler/pic32-tools/bin/../lib/gcc/pic32mx/4.5.2/libgcc.a(truncdfsf2.o)
                              obj/matrix4.o (__truncdfsf2)
/home/gombe/workspace/machikania/origdev/pic32/compiler/pic32-tools/bin/../lib/gcc/pic32mx/4.5.2/../../../../pic32mx/lib/libc.a(lib_a-assert.o)
                              obj/maze.o (__assert_func)
/home/gombe/workspace/machikania/origdev/pic32/compiler/pic32-tools/bin/../lib/gcc/pic32mx/4.5.2/../../../../pic32mx/lib/libc.a(lib_a-fiprintf.o)
                              /home/gombe/workspace/machikania/origdev/pic32/compiler/pic32-tools/bin/../lib/gcc/pic32mx/4.5.2/../../../../pic32mx/lib/libc.a(lib_a-assert.o) (fiprintf)
/home/gombe/workspace/machikania/origdev/pic32/compiler/pic32-tools/bin/../lib/gcc/pic32mx/4.5.2/../../../../pic32mx/lib/libc.a(lib_a-impure.o)
                              /home/gombe/workspace/machikania/origdev/pic32/compiler/pic32-tools/bin/../lib/gcc/pic32mx/4.5.2/../../../../pic32mx/lib/libc.a(lib_a-assert.o) (_impure_ptr)
/home/gombe/workspace/machikania/origdev/pic32/compiler/pic32-tools/bin/../lib/gcc/pic32mx/4.5.2/../../../../pic32mx/lib/libc.a(lib_a-printf.o)
                              obj/vector2.o (printf)
/home/gombe/workspace/machikania/origdev/pic32/compiler/pic32-tools/bin/../lib/gcc/pic32mx/4.5.2/../../../../pic32mx/lib/libc.a(lib_a-vfiprintf.o)
                              /home/gombe/workspace/machikania/origdev/pic32/compiler/pic32-tools/bin/../lib/gcc/pic32mx/4.5.2/../../../../pic32mx/lib/libc.a(lib_a-fiprintf.o) (_vfiprintf_r)
/home/gombe/workspace/machikania/origdev/pic32/compiler/pic32-tools/bin/../lib/gcc/pic32mx/4.5.2/../../../../pic32mx/lib/libc.a(lib_a-vfprintf.o)
                              /home/gombe/workspace/machikania/origdev/pic32/compiler/pic32-tools/bin/../lib/gcc/pic32mx/4.5.2/../../../../pic32mx/lib/libc.a(lib_a-printf.o) (_vfprintf_r)
/home/gombe/workspace/machikania/origdev/pic32/compiler/pic32-tools/bin/../lib/gcc/pic32mx/4.5.2/../../../../pic32mx/lib/libc.a(lib_a-wsetup.o)
                              /home/gombe/workspace/machikania/origdev/pic32/compiler/pic32-tools/bin/../lib/gcc/pic32mx/4.5.2/../../../../pic32mx/lib/libc.a(lib_a-vfiprintf.o) (__swsetup_r)
/home/gombe/workspace/machikania/origdev/pic32/compiler/pic32-tools/bin/../lib/gcc/pic32mx/4.5.2/../../../../pic32mx/lib/libc.a(lib_a-abort.o)
                              /home/gombe/workspace/machikania/origdev/pic32/compiler/pic32-tools/bin/../lib/gcc/pic32mx/4.5.2/../../../../pic32mx/lib/libc.a(lib_a-assert.o) (abort)
/home/gombe/workspace/machikania/origdev/pic32/compiler/pic32-tools/bin/../lib/gcc/pic32mx/4.5.2/../../../../pic32mx/lib/libc.a(lib_a-dtoa.o)
                              /home/gombe/workspace/machikania/origdev/pic32/compiler/pic32-tools/bin/../lib/gcc/pic32mx/4.5.2/../../../../pic32mx/lib/libc.a(lib_a-vfprintf.o) (_dtoa_r)
/home/gombe/workspace/machikania/origdev/pic32/compiler/pic32-tools/bin/../lib/gcc/pic32mx/4.5.2/../../../../pic32mx/lib/libc.a(lib_a-fflush.o)
                              /home/gombe/workspace/machikania/origdev/pic32/compiler/pic32-tools/bin/../lib/gcc/pic32mx/4.5.2/../../../../pic32mx/lib/libc.a(lib_a-vfiprintf.o) (_fflush_r)
/home/gombe/workspace/machikania/origdev/pic32/compiler/pic32-tools/bin/../lib/gcc/pic32mx/4.5.2/../../../../pic32mx/lib/libc.a(lib_a-findfp.o)
                              /home/gombe/workspace/machikania/origdev/pic32/compiler/pic32-tools/bin/../lib/gcc/pic32mx/4.5.2/../../../../pic32mx/lib/libc.a(lib_a-vfiprintf.o) (__sinit)
/home/gombe/workspace/machikania/origdev/pic32/compiler/pic32-tools/bin/../lib/gcc/pic32mx/4.5.2/../../../../pic32mx/lib/libc.a(lib_a-fputwc.o)
                              /home/gombe/workspace/machikania/origdev/pic32/compiler/pic32-tools/bin/../lib/gcc/pic32mx/4.5.2/../../../../pic32mx/lib/libc.a(lib_a-vfiprintf.o) (_fputwc_r)
/home/gombe/workspace/machikania/origdev/pic32/compiler/pic32-tools/bin/../lib/gcc/pic32mx/4.5.2/../../../../pic32mx/lib/libc.a(lib_a-freer.o)
                              /home/gombe/workspace/machikania/origdev/pic32/compiler/pic32-tools/bin/../lib/gcc/pic32mx/4.5.2/../../../../pic32mx/lib/libc.a(lib_a-wsetup.o) (_free_r)
/home/gombe/workspace/machikania/origdev/pic32/compiler/pic32-tools/bin/../lib/gcc/pic32mx/4.5.2/../../../../pic32mx/lib/libc.a(lib_a-fvwrite.o)
                              /home/gombe/workspace/machikania/origdev/pic32/compiler/pic32-tools/bin/../lib/gcc/pic32mx/4.5.2/../../../../pic32mx/lib/libc.a(lib_a-vfiprintf.o) (__sfvwrite_r)
/home/gombe/workspace/machikania/origdev/pic32/compiler/pic32-tools/bin/../lib/gcc/pic32mx/4.5.2/../../../../pic32mx/lib/libc.a(lib_a-fwalk.o)
                              /home/gombe/workspace/machikania/origdev/pic32/compiler/pic32-tools/bin/../lib/gcc/pic32mx/4.5.2/../../../../pic32mx/lib/libc.a(lib_a-findfp.o) (_fwalk)
/home/gombe/workspace/machikania/origdev/pic32/compiler/pic32-tools/bin/../lib/gcc/pic32mx/4.5.2/../../../../pic32mx/lib/libc.a(lib_a-locale.o)
                              /home/gombe/workspace/machikania/origdev/pic32/compiler/pic32-tools/bin/../lib/gcc/pic32mx/4.5.2/../../../../pic32mx/lib/libc.a(lib_a-fputwc.o) (__locale_mb_cur_max)
/home/gombe/workspace/machikania/origdev/pic32/compiler/pic32-tools/bin/../lib/gcc/pic32mx/4.5.2/../../../../pic32mx/lib/libc.a(lib_a-makebuf.o)
                              /home/gombe/workspace/machikania/origdev/pic32/compiler/pic32-tools/bin/../lib/gcc/pic32mx/4.5.2/../../../../pic32mx/lib/libc.a(lib_a-wsetup.o) (__smakebuf_r)
/home/gombe/workspace/machikania/origdev/pic32/compiler/pic32-tools/bin/../lib/gcc/pic32mx/4.5.2/../../../../pic32mx/lib/libc.a(lib_a-mallocr.o)
                              /home/gombe/workspace/machikania/origdev/pic32/compiler/pic32-tools/bin/../lib/gcc/pic32mx/4.5.2/../../../../pic32mx/lib/libc.a(lib_a-findfp.o) (_malloc_r)
/home/gombe/workspace/machikania/origdev/pic32/compiler/pic32-tools/bin/../lib/gcc/pic32mx/4.5.2/../../../../pic32mx/lib/libc.a(lib_a-memchr.o)
                              /home/gombe/workspace/machikania/origdev/pic32/compiler/pic32-tools/bin/../lib/gcc/pic32mx/4.5.2/../../../../pic32mx/lib/libc.a(lib_a-vfiprintf.o) (memchr)
/home/gombe/workspace/machikania/origdev/pic32/compiler/pic32-tools/bin/../lib/gcc/pic32mx/4.5.2/../../../../pic32mx/lib/libc.a(lib_a-memcpy.o)
                              /home/gombe/workspace/machikania/origdev/pic32/compiler/pic32-tools/bin/../lib/gcc/pic32mx/4.5.2/../../../../pic32mx/lib/libc.a(lib_a-dtoa.o) (memcpy)
/home/gombe/workspace/machikania/origdev/pic32/compiler/pic32-tools/bin/../lib/gcc/pic32mx/4.5.2/../../../../pic32mx/lib/libc.a(lib_a-memmove.o)
                              /home/gombe/workspace/machikania/origdev/pic32/compiler/pic32-tools/bin/../lib/gcc/pic32mx/4.5.2/../../../../pic32mx/lib/libc.a(lib_a-fvwrite.o) (memmove)
/home/gombe/workspace/machikania/origdev/pic32/compiler/pic32-tools/bin/../lib/gcc/pic32mx/4.5.2/../../../../pic32mx/lib/libc.a(lib_a-memset.o)
                              /home/gombe/workspace/machikania/origdev/pic32/compiler/pic32-tools/bin/../lib/gcc/pic32mx/4.5.2/../../../../pic32mx/lib/libc.a(lib_a-findfp.o) (memset)
/home/gombe/workspace/machikania/origdev/pic32/compiler/pic32-tools/bin/../lib/gcc/pic32mx/4.5.2/../../../../pic32mx/lib/libc.a(lib_a-mlock.o)
                              /home/gombe/workspace/machikania/origdev/pic32/compiler/pic32-tools/bin/../lib/gcc/pic32mx/4.5.2/../../../../pic32mx/lib/libc.a(lib_a-freer.o) (__malloc_lock)
/home/gombe/workspace/machikania/origdev/pic32/compiler/pic32-tools/bin/../lib/gcc/pic32mx/4.5.2/../../../../pic32mx/lib/libc.a(lib_a-mprec.o)
                              /home/gombe/workspace/machikania/origdev/pic32/compiler/pic32-tools/bin/../lib/gcc/pic32mx/4.5.2/../../../../pic32mx/lib/libc.a(lib_a-dtoa.o) (_Balloc)
/home/gombe/workspace/machikania/origdev/pic32/compiler/pic32-tools/bin/../lib/gcc/pic32mx/4.5.2/../../../../pic32mx/lib/libc.a(lib_a-reallocr.o)
                              /home/gombe/workspace/machikania/origdev/pic32/compiler/pic32-tools/bin/../lib/gcc/pic32mx/4.5.2/../../../../pic32mx/lib/libc.a(lib_a-fvwrite.o) (_realloc_r)
/home/gombe/workspace/machikania/origdev/pic32/compiler/pic32-tools/bin/../lib/gcc/pic32mx/4.5.2/../../../../pic32mx/lib/libc.a(lib_a-sbrkr.o)
                              /home/gombe/workspace/machikania/origdev/pic32/compiler/pic32-tools/bin/../lib/gcc/pic32mx/4.5.2/../../../../pic32mx/lib/libc.a(lib_a-freer.o) (_sbrk_r)
/home/gombe/workspace/machikania/origdev/pic32/compiler/pic32-tools/bin/../lib/gcc/pic32mx/4.5.2/../../../../pic32mx/lib/libc.a(lib_a-s_fpclassify.o)
                              /home/gombe/workspace/machikania/origdev/pic32/compiler/pic32-tools/bin/../lib/gcc/pic32mx/4.5.2/../../../../pic32mx/lib/libc.a(lib_a-vfprintf.o) (__fpclassifyd)
/home/gombe/workspace/machikania/origdev/pic32/compiler/pic32-tools/bin/../lib/gcc/pic32mx/4.5.2/../../../../pic32mx/lib/libc.a(lib_a-signal.o)
                              /home/gombe/workspace/machikania/origdev/pic32/compiler/pic32-tools/bin/../lib/gcc/pic32mx/4.5.2/../../../../pic32mx/lib/libc.a(lib_a-abort.o) (raise)
/home/gombe/workspace/machikania/origdev/pic32/compiler/pic32-tools/bin/../lib/gcc/pic32mx/4.5.2/../../../../pic32mx/lib/libc.a(lib_a-signalr.o)
                              /home/gombe/workspace/machikania/origdev/pic32/compiler/pic32-tools/bin/../lib/gcc/pic32mx/4.5.2/../../../../pic32mx/lib/libc.a(lib_a-signal.o) (_kill_r)
/home/gombe/workspace/machikania/origdev/pic32/compiler/pic32-tools/bin/../lib/gcc/pic32mx/4.5.2/../../../../pic32mx/lib/libc.a(lib_a-stdio.o)
                              /home/gombe/workspace/machikania/origdev/pic32/compiler/pic32-tools/bin/../lib/gcc/pic32mx/4.5.2/../../../../pic32mx/lib/libc.a(lib_a-findfp.o) (__sread)
/home/gombe/workspace/machikania/origdev/pic32/compiler/pic32-tools/bin/../lib/gcc/pic32mx/4.5.2/../../../../pic32mx/lib/libc.a(lib_a-strcmp.o)
                              /home/gombe/workspace/machikania/origdev/pic32/compiler/pic32-tools/bin/../lib/gcc/pic32mx/4.5.2/../../../../pic32mx/lib/libc.a(lib_a-locale.o) (strcmp)
/home/gombe/workspace/machikania/origdev/pic32/compiler/pic32-tools/bin/../lib/gcc/pic32mx/4.5.2/../../../../pic32mx/lib/libc.a(lib_a-strlen.o)
                              /home/gombe/workspace/machikania/origdev/pic32/compiler/pic32-tools/bin/../lib/gcc/pic32mx/4.5.2/../../../../pic32mx/lib/libc.a(lib_a-vfiprintf.o) (strlen)
/home/gombe/workspace/machikania/origdev/pic32/compiler/pic32-tools/bin/../lib/gcc/pic32mx/4.5.2/../../../../pic32mx/lib/libc.a(lib_a-wbuf.o)
                              /home/gombe/workspace/machikania/origdev/pic32/compiler/pic32-tools/bin/../lib/gcc/pic32mx/4.5.2/../../../../pic32mx/lib/libc.a(lib_a-fputwc.o) (__swbuf_r)
/home/gombe/workspace/machikania/origdev/pic32/compiler/pic32-tools/bin/../lib/gcc/pic32mx/4.5.2/../../../../pic32mx/lib/libc.a(lib_a-wcrtomb.o)
                              /home/gombe/workspace/machikania/origdev/pic32/compiler/pic32-tools/bin/../lib/gcc/pic32mx/4.5.2/../../../../pic32mx/lib/libc.a(lib_a-fputwc.o) (_wcrtomb_r)
/home/gombe/workspace/machikania/origdev/pic32/compiler/pic32-tools/bin/../lib/gcc/pic32mx/4.5.2/../../../../pic32mx/lib/libc.a(lib_a-wctomb_r.o)
                              /home/gombe/workspace/machikania/origdev/pic32/compiler/pic32-tools/bin/../lib/gcc/pic32mx/4.5.2/../../../../pic32mx/lib/libc.a(lib_a-wcrtomb.o) (__wctomb)
/home/gombe/workspace/machikania/origdev/pic32/compiler/pic32-tools/bin/../lib/gcc/pic32mx/4.5.2/../../../../pic32mx/lib/libc.a(lib_a-writer.o)
                              /home/gombe/workspace/machikania/origdev/pic32/compiler/pic32-tools/bin/../lib/gcc/pic32mx/4.5.2/../../../../pic32mx/lib/libc.a(lib_a-stdio.o) (_write_r)
/home/gombe/workspace/machikania/origdev/pic32/compiler/pic32-tools/bin/../lib/gcc/pic32mx/4.5.2/../../../../pic32mx/lib/libc.a(lib_a-callocr.o)
                              /home/gombe/workspace/machikania/origdev/pic32/compiler/pic32-tools/bin/../lib/gcc/pic32mx/4.5.2/../../../../pic32mx/lib/libc.a(lib_a-mprec.o) (_calloc_r)
/home/gombe/workspace/machikania/origdev/pic32/compiler/pic32-tools/bin/../lib/gcc/pic32mx/4.5.2/../../../../pic32mx/lib/libc.a(lib_a-closer.o)
                              /home/gombe/workspace/machikania/origdev/pic32/compiler/pic32-tools/bin/../lib/gcc/pic32mx/4.5.2/../../../../pic32mx/lib/libc.a(lib_a-stdio.o) (_close_r)
/home/gombe/workspace/machikania/origdev/pic32/compiler/pic32-tools/bin/../lib/gcc/pic32mx/4.5.2/../../../../pic32mx/lib/libc.a(lib_a-fclose.o)
                              /home/gombe/workspace/machikania/origdev/pic32/compiler/pic32-tools/bin/../lib/gcc/pic32mx/4.5.2/../../../../pic32mx/lib/libc.a(lib_a-findfp.o) (fclose)
/home/gombe/workspace/machikania/origdev/pic32/compiler/pic32-tools/bin/../lib/gcc/pic32mx/4.5.2/../../../../pic32mx/lib/libc.a(lib_a-fstatr.o)
                              /home/gombe/workspace/machikania/origdev/pic32/compiler/pic32-tools/bin/../lib/gcc/pic32mx/4.5.2/../../../../pic32mx/lib/libc.a(lib_a-makebuf.o) (_fstat_r)
/home/gombe/workspace/machikania/origdev/pic32/compiler/pic32-tools/bin/../lib/gcc/pic32mx/4.5.2/../../../../pic32mx/lib/libc.a(lib_a-isattyr.o)
                              /home/gombe/workspace/machikania/origdev/pic32/compiler/pic32-tools/bin/../lib/gcc/pic32mx/4.5.2/../../../../pic32mx/lib/libc.a(lib_a-makebuf.o) (_isatty_r)
/home/gombe/workspace/machikania/origdev/pic32/compiler/pic32-tools/bin/../lib/gcc/pic32mx/4.5.2/../../../../pic32mx/lib/libc.a(lib_a-lseekr.o)
                              /home/gombe/workspace/machikania/origdev/pic32/compiler/pic32-tools/bin/../lib/gcc/pic32mx/4.5.2/../../../../pic32mx/lib/libc.a(lib_a-stdio.o) (_lseek_r)
/home/gombe/workspace/machikania/origdev/pic32/compiler/pic32-tools/bin/../lib/gcc/pic32mx/4.5.2/../../../../pic32mx/lib/libc.a(lib_a-readr.o)
                              /home/gombe/workspace/machikania/origdev/pic32/compiler/pic32-tools/bin/../lib/gcc/pic32mx/4.5.2/../../../../pic32mx/lib/libc.a(lib_a-stdio.o) (_read_r)
/home/gombe/workspace/machikania/origdev/pic32/compiler/pic32-tools/bin/../lib/gcc/pic32mx/4.5.2/../../../../pic32mx/lib/libc.a(lib_a-reent.o)
                              /home/gombe/workspace/machikania/origdev/pic32/compiler/pic32-tools/bin/../lib/gcc/pic32mx/4.5.2/../../../../pic32mx/lib/libc.a(lib_a-sbrkr.o) (errno)
/home/gombe/workspace/machikania/origdev/pic32/compiler/pic32-tools/bin/../lib/gcc/pic32mx/4.5.2/../../../../pic32mx/lib/libpic32.a(sbrk.o)
                              /home/gombe/workspace/machikania/origdev/pic32/compiler/pic32-tools/bin/../lib/gcc/pic32mx/4.5.2/../../../../pic32mx/lib/libc.a(lib_a-sbrkr.o) (sbrk)
/home/gombe/workspace/machikania/origdev/pic32/compiler/pic32-tools/bin/../lib/gcc/pic32mx/4.5.2/../../../../pic32mx/lib/libpic32.a(default-bootstrap-exception-handler.o)
                              obj/crt0.o (_bootstrap_exception_handler)
/home/gombe/workspace/machikania/origdev/pic32/compiler/pic32-tools/bin/../lib/gcc/pic32mx/4.5.2/../../../../pic32mx/lib/libpic32.a(default-on-reset.o)
                              obj/crt0.o (_on_reset)
/home/gombe/workspace/machikania/origdev/pic32/compiler/pic32-tools/bin/../lib/gcc/pic32mx/4.5.2/../../../../pic32mx/lib/libpic32.a(default-on-bootstrap.o)
                              obj/crt0.o (_on_bootstrap)
/home/gombe/workspace/machikania/origdev/pic32/compiler/pic32-tools/bin/../lib/gcc/pic32mx/4.5.2/../../../../pic32mx/lib/libpic32.a(default-nmi-handler.o)
                              obj/crt0.o (_nmi_handler)
/home/gombe/workspace/machikania/origdev/pic32/compiler/pic32-tools/bin/../lib/gcc/pic32mx/4.5.2/../../../../pic32mx/lib/libpic32.a(_exit.o)
                              /home/gombe/workspace/machikania/origdev/pic32/compiler/pic32-tools/bin/../lib/gcc/pic32mx/4.5.2/../../../../pic32mx/lib/libc.a(lib_a-abort.o) (_exit)
/home/gombe/workspace/machikania/origdev/pic32/compiler/pic32-tools/bin/../lib/gcc/pic32mx/4.5.2/../../../../pic32mx/lib/libpic32.a(isatty.o)
                              /home/gombe/workspace/machikania/origdev/pic32/compiler/pic32-tools/bin/../lib/gcc/pic32mx/4.5.2/../../../../pic32mx/lib/libc.a(lib_a-isattyr.o) (isatty)
/home/gombe/workspace/machikania/origdev/pic32/compiler/pic32-tools/bin/../lib/gcc/pic32mx/4.5.2/../../../../pic32mx/lib/libpic32.a(read.o)
                              /home/gombe/workspace/machikania/origdev/pic32/compiler/pic32-tools/bin/../lib/gcc/pic32mx/4.5.2/../../../../pic32mx/lib/libc.a(lib_a-readr.o) (read)
/home/gombe/workspace/machikania/origdev/pic32/compiler/pic32-tools/bin/../lib/gcc/pic32mx/4.5.2/../../../../pic32mx/lib/libpic32.a(write.o)
                              /home/gombe/workspace/machikania/origdev/pic32/compiler/pic32-tools/bin/../lib/gcc/pic32mx/4.5.2/../../../../pic32mx/lib/libc.a(lib_a-writer.o) (write)
/home/gombe/workspace/machikania/origdev/pic32/compiler/pic32-tools/bin/../lib/gcc/pic32mx/4.5.2/../../../../pic32mx/lib/libpic32.a(lseek.o)
                              /home/gombe/workspace/machikania/origdev/pic32/compiler/pic32-tools/bin/../lib/gcc/pic32mx/4.5.2/../../../../pic32mx/lib/libc.a(lib_a-lseekr.o) (lseek)
/home/gombe/workspace/machikania/origdev/pic32/compiler/pic32-tools/bin/../lib/gcc/pic32mx/4.5.2/../../../../pic32mx/lib/libpic32.a(close.o)
                              /home/gombe/workspace/machikania/origdev/pic32/compiler/pic32-tools/bin/../lib/gcc/pic32mx/4.5.2/../../../../pic32mx/lib/libc.a(lib_a-closer.o) (close)
/home/gombe/workspace/machikania/origdev/pic32/compiler/pic32-tools/bin/../lib/gcc/pic32mx/4.5.2/../../../../pic32mx/lib/libpic32.a(fstat.o)
                              /home/gombe/workspace/machikania/origdev/pic32/compiler/pic32-tools/bin/../lib/gcc/pic32mx/4.5.2/../../../../pic32mx/lib/libc.a(lib_a-fstatr.o) (fstat)
/home/gombe/workspace/machikania/origdev/pic32/compiler/pic32-tools/bin/../lib/gcc/pic32mx/4.5.2/../../../../pic32mx/lib/libpic32.a(kill.o)
                              /home/gombe/workspace/machikania/origdev/pic32/compiler/pic32-tools/bin/../lib/gcc/pic32mx/4.5.2/../../../../pic32mx/lib/libc.a(lib_a-signalr.o) (kill)
/home/gombe/workspace/machikania/origdev/pic32/compiler/pic32-tools/bin/../lib/gcc/pic32mx/4.5.2/../../../../pic32mx/lib/libpic32.a(getpid.o)
                              /home/gombe/workspace/machikania/origdev/pic32/compiler/pic32-tools/bin/../lib/gcc/pic32mx/4.5.2/../../../../pic32mx/lib/libc.a(lib_a-signalr.o) (getpid)
/home/gombe/workspace/machikania/origdev/pic32/compiler/pic32-tools/bin/../lib/gcc/pic32mx/4.5.2/../../../../pic32mx/lib/libpic32.a(xc32_uart.o)
                              /home/gombe/workspace/machikania/origdev/pic32/compiler/pic32-tools/bin/../lib/gcc/pic32mx/4.5.2/../../../../pic32mx/lib/libpic32.a(read.o) (__XC_UART)
/home/gombe/workspace/machikania/origdev/pic32/compiler/pic32-tools/bin/../lib/gcc/pic32mx/4.5.2/../../../../pic32mx/lib/libpic32.a(pic32_software_reset.o)
                              /home/gombe/workspace/machikania/origdev/pic32/compiler/pic32-tools/bin/../lib/gcc/pic32mx/4.5.2/../../../../pic32mx/lib/libpic32.a(default-bootstrap-exception-handler.o) (__pic32_software_reset)
/home/gombe/workspace/machikania/origdev/pic32/compiler/pic32-tools/bin/../lib/gcc/pic32mx/4.5.2/../../../../pic32mx/lib/libpic32.a(vector0.o)
                              /home/gombe/workspace/machikania/origdev/pic32/compiler/pic32-tools/bin/../lib/gcc/pic32mx/4.5.2/../../../../pic32mx/lib/./proc/32MX250F128B/default_isr_vectors.o (__vector_dispatch_0)
/home/gombe/workspace/machikania/origdev/pic32/compiler/pic32-tools/bin/../lib/gcc/pic32mx/4.5.2/../../../../pic32mx/lib/libpic32.a(vector1.o)
                              /home/gombe/workspace/machikania/origdev/pic32/compiler/pic32-tools/bin/../lib/gcc/pic32mx/4.5.2/../../../../pic32mx/lib/./proc/32MX250F128B/default_isr_vectors.o (__vector_dispatch_1)
/home/gombe/workspace/machikania/origdev/pic32/compiler/pic32-tools/bin/../lib/gcc/pic32mx/4.5.2/../../../../pic32mx/lib/libpic32.a(vector2.o)
                              /home/gombe/workspace/machikania/origdev/pic32/compiler/pic32-tools/bin/../lib/gcc/pic32mx/4.5.2/../../../../pic32mx/lib/./proc/32MX250F128B/default_isr_vectors.o (__vector_dispatch_2)
/home/gombe/workspace/machikania/origdev/pic32/compiler/pic32-tools/bin/../lib/gcc/pic32mx/4.5.2/../../../../pic32mx/lib/libpic32.a(vector3.o)
                              /home/gombe/workspace/machikania/origdev/pic32/compiler/pic32-tools/bin/../lib/gcc/pic32mx/4.5.2/../../../../pic32mx/lib/./proc/32MX250F128B/default_isr_vectors.o (__vector_dispatch_3)
/home/gombe/workspace/machikania/origdev/pic32/compiler/pic32-tools/bin/../lib/gcc/pic32mx/4.5.2/../../../../pic32mx/lib/libpic32.a(vector4.o)
                              /home/gombe/workspace/machikania/origdev/pic32/compiler/pic32-tools/bin/../lib/gcc/pic32mx/4.5.2/../../../../pic32mx/lib/./proc/32MX250F128B/default_isr_vectors.o (__vector_dispatch_4)
/home/gombe/workspace/machikania/origdev/pic32/compiler/pic32-tools/bin/../lib/gcc/pic32mx/4.5.2/../../../../pic32mx/lib/libpic32.a(vector5.o)
                              /home/gombe/workspace/machikania/origdev/pic32/compiler/pic32-tools/bin/../lib/gcc/pic32mx/4.5.2/../../../../pic32mx/lib/./proc/32MX250F128B/default_isr_vectors.o (__vector_dispatch_5)
/home/gombe/workspace/machikania/origdev/pic32/compiler/pic32-tools/bin/../lib/gcc/pic32mx/4.5.2/../../../../pic32mx/lib/libpic32.a(vector7.o)
                              /home/gombe/workspace/machikania/origdev/pic32/compiler/pic32-tools/bin/../lib/gcc/pic32mx/4.5.2/../../../../pic32mx/lib/./proc/32MX250F128B/default_isr_vectors.o (__vector_dispatch_7)
/home/gombe/workspace/machikania/origdev/pic32/compiler/pic32-tools/bin/../lib/gcc/pic32mx/4.5.2/../../../../pic32mx/lib/libpic32.a(vector9.o)
                              /home/gombe/workspace/machikania/origdev/pic32/compiler/pic32-tools/bin/../lib/gcc/pic32mx/4.5.2/../../../../pic32mx/lib/./proc/32MX250F128B/default_isr_vectors.o (__vector_dispatch_9)
/home/gombe/workspace/machikania/origdev/pic32/compiler/pic32-tools/bin/../lib/gcc/pic32mx/4.5.2/../../../../pic32mx/lib/libpic32.a(vector11.o)
                              /home/gombe/workspace/machikania/origdev/pic32/compiler/pic32-tools/bin/../lib/gcc/pic32mx/4.5.2/../../../../pic32mx/lib/./proc/32MX250F128B/default_isr_vectors.o (__vector_dispatch_11)
/home/gombe/workspace/machikania/origdev/pic32/compiler/pic32-tools/bin/../lib/gcc/pic32mx/4.5.2/../../../../pic32mx/lib/libpic32.a(vector12.o)
                              /home/gombe/workspace/machikania/origdev/pic32/compiler/pic32-tools/bin/../lib/gcc/pic32mx/4.5.2/../../../../pic32mx/lib/./proc/32MX250F128B/default_isr_vectors.o (__vector_dispatch_12)
/home/gombe/workspace/machikania/origdev/pic32/compiler/pic32-tools/bin/../lib/gcc/pic32mx/4.5.2/../../../../pic32mx/lib/libpic32.a(vector13.o)
                              /home/gombe/workspace/machikania/origdev/pic32/compiler/pic32-tools/bin/../lib/gcc/pic32mx/4.5.2/../../../../pic32mx/lib/./proc/32MX250F128B/default_isr_vectors.o (__vector_dispatch_13)
/home/gombe/workspace/machikania/origdev/pic32/compiler/pic32-tools/bin/../lib/gcc/pic32mx/4.5.2/../../../../pic32mx/lib/libpic32.a(vector15.o)
                              /home/gombe/workspace/machikania/origdev/pic32/compiler/pic32-tools/bin/../lib/gcc/pic32mx/4.5.2/../../../../pic32mx/lib/./proc/32MX250F128B/default_isr_vectors.o (__vector_dispatch_15)
/home/gombe/workspace/machikania/origdev/pic32/compiler/pic32-tools/bin/../lib/gcc/pic32mx/4.5.2/../../../../pic32mx/lib/libpic32.a(vector16.o)
                              /home/gombe/workspace/machikania/origdev/pic32/compiler/pic32-tools/bin/../lib/gcc/pic32mx/4.5.2/../../../../pic32mx/lib/./proc/32MX250F128B/default_isr_vectors.o (__vector_dispatch_16)
/home/gombe/workspace/machikania/origdev/pic32/compiler/pic32-tools/bin/../lib/gcc/pic32mx/4.5.2/../../../../pic32mx/lib/libpic32.a(vector17.o)
                              /home/gombe/workspace/machikania/origdev/pic32/compiler/pic32-tools/bin/../lib/gcc/pic32mx/4.5.2/../../../../pic32mx/lib/./proc/32MX250F128B/default_isr_vectors.o (__vector_dispatch_17)
/home/gombe/workspace/machikania/origdev/pic32/compiler/pic32-tools/bin/../lib/gcc/pic32mx/4.5.2/../../../../pic32mx/lib/libpic32.a(vector18.o)
                              /home/gombe/workspace/machikania/origdev/pic32/compiler/pic32-tools/bin/../lib/gcc/pic32mx/4.5.2/../../../../pic32mx/lib/./proc/32MX250F128B/default_isr_vectors.o (__vector_dispatch_18)
/home/gombe/workspace/machikania/origdev/pic32/compiler/pic32-tools/bin/../lib/gcc/pic32mx/4.5.2/../../../../pic32mx/lib/libpic32.a(vector19.o)
                              /home/gombe/workspace/machikania/origdev/pic32/compiler/pic32-tools/bin/../lib/gcc/pic32mx/4.5.2/../../../../pic32mx/lib/./proc/32MX250F128B/default_isr_vectors.o (__vector_dispatch_19)
/home/gombe/workspace/machikania/origdev/pic32/compiler/pic32-tools/bin/../lib/gcc/pic32mx/4.5.2/../../../../pic32mx/lib/libpic32.a(vector20.o)
                              /home/gombe/workspace/machikania/origdev/pic32/compiler/pic32-tools/bin/../lib/gcc/pic32mx/4.5.2/../../../../pic32mx/lib/./proc/32MX250F128B/default_isr_vectors.o (__vector_dispatch_20)
/home/gombe/workspace/machikania/origdev/pic32/compiler/pic32-tools/bin/../lib/gcc/pic32mx/4.5.2/../../../../pic32mx/lib/libpic32.a(vector21.o)
                              /home/gombe/workspace/machikania/origdev/pic32/compiler/pic32-tools/bin/../lib/gcc/pic32mx/4.5.2/../../../../pic32mx/lib/./proc/32MX250F128B/default_isr_vectors.o (__vector_dispatch_21)
/home/gombe/workspace/machikania/origdev/pic32/compiler/pic32-tools/bin/../lib/gcc/pic32mx/4.5.2/../../../../pic32mx/lib/libpic32.a(vector22.o)
                              /home/gombe/workspace/machikania/origdev/pic32/compiler/pic32-tools/bin/../lib/gcc/pic32mx/4.5.2/../../../../pic32mx/lib/./proc/32MX250F128B/default_isr_vectors.o (__vector_dispatch_22)
/home/gombe/workspace/machikania/origdev/pic32/compiler/pic32-tools/bin/../lib/gcc/pic32mx/4.5.2/../../../../pic32mx/lib/libpic32.a(vector23.o)
                              /home/gombe/workspace/machikania/origdev/pic32/compiler/pic32-tools/bin/../lib/gcc/pic32mx/4.5.2/../../../../pic32mx/lib/./proc/32MX250F128B/default_isr_vectors.o (__vector_dispatch_23)
/home/gombe/workspace/machikania/origdev/pic32/compiler/pic32-tools/bin/../lib/gcc/pic32mx/4.5.2/../../../../pic32mx/lib/libpic32.a(vector24.o)
                              /home/gombe/workspace/machikania/origdev/pic32/compiler/pic32-tools/bin/../lib/gcc/pic32mx/4.5.2/../../../../pic32mx/lib/./proc/32MX250F128B/default_isr_vectors.o (__vector_dispatch_24)
/home/gombe/workspace/machikania/origdev/pic32/compiler/pic32-tools/bin/../lib/gcc/pic32mx/4.5.2/../../../../pic32mx/lib/libpic32.a(vector25.o)
                              /home/gombe/workspace/machikania/origdev/pic32/compiler/pic32-tools/bin/../lib/gcc/pic32mx/4.5.2/../../../../pic32mx/lib/./proc/32MX250F128B/default_isr_vectors.o (__vector_dispatch_25)
/home/gombe/workspace/machikania/origdev/pic32/compiler/pic32-tools/bin/../lib/gcc/pic32mx/4.5.2/../../../../pic32mx/lib/libpic32.a(vector26.o)
                              /home/gombe/workspace/machikania/origdev/pic32/compiler/pic32-tools/bin/../lib/gcc/pic32mx/4.5.2/../../../../pic32mx/lib/./proc/32MX250F128B/default_isr_vectors.o (__vector_dispatch_26)
/home/gombe/workspace/machikania/origdev/pic32/compiler/pic32-tools/bin/../lib/gcc/pic32mx/4.5.2/../../../../pic32mx/lib/libpic32.a(vector27.o)
                              /home/gombe/workspace/machikania/origdev/pic32/compiler/pic32-tools/bin/../lib/gcc/pic32mx/4.5.2/../../../../pic32mx/lib/./proc/32MX250F128B/default_isr_vectors.o (__vector_dispatch_27)
/home/gombe/workspace/machikania/origdev/pic32/compiler/pic32-tools/bin/../lib/gcc/pic32mx/4.5.2/../../../../pic32mx/lib/libpic32.a(vector28.o)
                              /home/gombe/workspace/machikania/origdev/pic32/compiler/pic32-tools/bin/../lib/gcc/pic32mx/4.5.2/../../../../pic32mx/lib/./proc/32MX250F128B/default_isr_vectors.o (__vector_dispatch_28)
/home/gombe/workspace/machikania/origdev/pic32/compiler/pic32-tools/bin/../lib/gcc/pic32mx/4.5.2/../../../../pic32mx/lib/libpic32.a(vector29.o)
                              /home/gombe/workspace/machikania/origdev/pic32/compiler/pic32-tools/bin/../lib/gcc/pic32mx/4.5.2/../../../../pic32mx/lib/./proc/32MX250F128B/default_isr_vectors.o (__vector_dispatch_29)
/home/gombe/workspace/machikania/origdev/pic32/compiler/pic32-tools/bin/../lib/gcc/pic32mx/4.5.2/../../../../pic32mx/lib/libpic32.a(vector30.o)
                              /home/gombe/workspace/machikania/origdev/pic32/compiler/pic32-tools/bin/../lib/gcc/pic32mx/4.5.2/../../../../pic32mx/lib/./proc/32MX250F128B/default_isr_vectors.o (__vector_dispatch_30)
/home/gombe/workspace/machikania/origdev/pic32/compiler/pic32-tools/bin/../lib/gcc/pic32mx/4.5.2/../../../../pic32mx/lib/libpic32.a(vector31.o)
                              /home/gombe/workspace/machikania/origdev/pic32/compiler/pic32-tools/bin/../lib/gcc/pic32mx/4.5.2/../../../../pic32mx/lib/./proc/32MX250F128B/default_isr_vectors.o (__vector_dispatch_31)
/home/gombe/workspace/machikania/origdev/pic32/compiler/pic32-tools/bin/../lib/gcc/pic32mx/4.5.2/../../../../pic32mx/lib/libpic32.a(vector32.o)
                              /home/gombe/workspace/machikania/origdev/pic32/compiler/pic32-tools/bin/../lib/gcc/pic32mx/4.5.2/../../../../pic32mx/lib/./proc/32MX250F128B/default_isr_vectors.o (__vector_dispatch_32)
/home/gombe/workspace/machikania/origdev/pic32/compiler/pic32-tools/bin/../lib/gcc/pic32mx/4.5.2/../../../../pic32mx/lib/libpic32.a(vector33.o)
                              /home/gombe/workspace/machikania/origdev/pic32/compiler/pic32-tools/bin/../lib/gcc/pic32mx/4.5.2/../../../../pic32mx/lib/./proc/32MX250F128B/default_isr_vectors.o (__vector_dispatch_33)
/home/gombe/workspace/machikania/origdev/pic32/compiler/pic32-tools/bin/../lib/gcc/pic32mx/4.5.2/../../../../pic32mx/lib/libpic32.a(vector34.o)
                              /home/gombe/workspace/machikania/origdev/pic32/compiler/pic32-tools/bin/../lib/gcc/pic32mx/4.5.2/../../../../pic32mx/lib/./proc/32MX250F128B/default_isr_vectors.o (__vector_dispatch_34)
/home/gombe/workspace/machikania/origdev/pic32/compiler/pic32-tools/bin/../lib/gcc/pic32mx/4.5.2/../../../../pic32mx/lib/libpic32.a(vector35.o)
                              /home/gombe/workspace/machikania/origdev/pic32/compiler/pic32-tools/bin/../lib/gcc/pic32mx/4.5.2/../../../../pic32mx/lib/./proc/32MX250F128B/default_isr_vectors.o (__vector_dispatch_35)
/home/gombe/workspace/machikania/origdev/pic32/compiler/pic32-tools/bin/../lib/gcc/pic32mx/4.5.2/../../../../pic32mx/lib/libpic32.a(vector36.o)
                              /home/gombe/workspace/machikania/origdev/pic32/compiler/pic32-tools/bin/../lib/gcc/pic32mx/4.5.2/../../../../pic32mx/lib/./proc/32MX250F128B/default_isr_vectors.o (__vector_dispatch_36)
/home/gombe/workspace/machikania/origdev/pic32/compiler/pic32-tools/bin/../lib/gcc/pic32mx/4.5.2/../../../../pic32mx/lib/libpic32.a(vector37.o)
                              /home/gombe/workspace/machikania/origdev/pic32/compiler/pic32-tools/bin/../lib/gcc/pic32mx/4.5.2/../../../../pic32mx/lib/./proc/32MX250F128B/default_isr_vectors.o (__vector_dispatch_37)
/home/gombe/workspace/machikania/origdev/pic32/compiler/pic32-tools/bin/../lib/gcc/pic32mx/4.5.2/../../../../pic32mx/lib/libpic32.a(vector38.o)
                              /home/gombe/workspace/machikania/origdev/pic32/compiler/pic32-tools/bin/../lib/gcc/pic32mx/4.5.2/../../../../pic32mx/lib/./proc/32MX250F128B/default_isr_vectors.o (__vector_dispatch_38)
/home/gombe/workspace/machikania/origdev/pic32/compiler/pic32-tools/bin/../lib/gcc/pic32mx/4.5.2/../../../../pic32mx/lib/libpic32.a(vector39.o)
                              /home/gombe/workspace/machikania/origdev/pic32/compiler/pic32-tools/bin/../lib/gcc/pic32mx/4.5.2/../../../../pic32mx/lib/./proc/32MX250F128B/default_isr_vectors.o (__vector_dispatch_39)
/home/gombe/workspace/machikania/origdev/pic32/compiler/pic32-tools/bin/../lib/gcc/pic32mx/4.5.2/../../../../pic32mx/lib/libpic32.a(vector40.o)
                              /home/gombe/workspace/machikania/origdev/pic32/compiler/pic32-tools/bin/../lib/gcc/pic32mx/4.5.2/../../../../pic32mx/lib/./proc/32MX250F128B/default_isr_vectors.o (__vector_dispatch_40)
/home/gombe/workspace/machikania/origdev/pic32/compiler/pic32-tools/bin/../lib/gcc/pic32mx/4.5.2/../../../../pic32mx/lib/libpic32.a(vector41.o)
                              /home/gombe/workspace/machikania/origdev/pic32/compiler/pic32-tools/bin/../lib/gcc/pic32mx/4.5.2/../../../../pic32mx/lib/./proc/32MX250F128B/default_isr_vectors.o (__vector_dispatch_41)
/home/gombe/workspace/machikania/origdev/pic32/compiler/pic32-tools/bin/../lib/gcc/pic32mx/4.5.2/../../../../pic32mx/lib/libpic32.a(vector42.o)
                              /home/gombe/workspace/machikania/origdev/pic32/compiler/pic32-tools/bin/../lib/gcc/pic32mx/4.5.2/../../../../pic32mx/lib/./proc/32MX250F128B/default_isr_vectors.o (__vector_dispatch_42)
/home/gombe/workspace/machikania/origdev/pic32/compiler/pic32-tools/bin/../lib/gcc/pic32mx/4.5.2/../../../../pic32mx/lib/libpic32.a(vector43.o)
                              /home/gombe/workspace/machikania/origdev/pic32/compiler/pic32-tools/bin/../lib/gcc/pic32mx/4.5.2/../../../../pic32mx/lib/./proc/32MX250F128B/default_isr_vectors.o (__vector_dispatch_43)
/home/gombe/workspace/machikania/origdev/pic32/compiler/pic32-tools/bin/../lib/gcc/pic32mx/4.5.2/../../../../pic32mx/lib/libpic32.a(vector44.o)
                              /home/gombe/workspace/machikania/origdev/pic32/compiler/pic32-tools/bin/../lib/gcc/pic32mx/4.5.2/../../../../pic32mx/lib/./proc/32MX250F128B/default_isr_vectors.o (__vector_dispatch_44)
/home/gombe/workspace/machikania/origdev/pic32/compiler/pic32-tools/bin/../lib/gcc/pic32mx/4.5.2/../../../../pic32mx/lib/libpic32.a(vector45.o)
                              /home/gombe/workspace/machikania/origdev/pic32/compiler/pic32-tools/bin/../lib/gcc/pic32mx/4.5.2/../../../../pic32mx/lib/./proc/32MX250F128B/default_isr_vectors.o (__vector_dispatch_45)
/home/gombe/workspace/machikania/origdev/pic32/compiler/pic32-tools/bin/../lib/gcc/pic32mx/4.5.2/../../../../pic32mx/lib/libpic32.a(vector46.o)
                              /home/gombe/workspace/machikania/origdev/pic32/compiler/pic32-tools/bin/../lib/gcc/pic32mx/4.5.2/../../../../pic32mx/lib/./proc/32MX250F128B/default_isr_vectors.o (__vector_dispatch_46)
/home/gombe/workspace/machikania/origdev/pic32/compiler/pic32-tools/bin/../lib/gcc/pic32mx/4.5.2/../../../../pic32mx/lib/libpic32.a(vector47.o)
                              /home/gombe/workspace/machikania/origdev/pic32/compiler/pic32-tools/bin/../lib/gcc/pic32mx/4.5.2/../../../../pic32mx/lib/./proc/32MX250F128B/default_isr_vectors.o (__vector_dispatch_47)
/home/gombe/workspace/machikania/origdev/pic32/compiler/pic32-tools/bin/../lib/gcc/pic32mx/4.5.2/../../../../pic32mx/lib/libpic32.a(vector48.o)
                              /home/gombe/workspace/machikania/origdev/pic32/compiler/pic32-tools/bin/../lib/gcc/pic32mx/4.5.2/../../../../pic32mx/lib/./proc/32MX250F128B/default_isr_vectors.o (__vector_dispatch_48)
/home/gombe/workspace/machikania/origdev/pic32/compiler/pic32-tools/bin/../lib/gcc/pic32mx/4.5.2/../../../../pic32mx/lib/libpic32.a(vector49.o)
                              /home/gombe/workspace/machikania/origdev/pic32/compiler/pic32-tools/bin/../lib/gcc/pic32mx/4.5.2/../../../../pic32mx/lib/./proc/32MX250F128B/default_isr_vectors.o (__vector_dispatch_49)
/home/gombe/workspace/machikania/origdev/pic32/compiler/pic32-tools/bin/../lib/gcc/pic32mx/4.5.2/../../../../pic32mx/lib/libpic32.a(vector50.o)
                              /home/gombe/workspace/machikania/origdev/pic32/compiler/pic32-tools/bin/../lib/gcc/pic32mx/4.5.2/../../../../pic32mx/lib/./proc/32MX250F128B/default_isr_vectors.o (__vector_dispatch_50)
/home/gombe/workspace/machikania/origdev/pic32/compiler/pic32-tools/bin/../lib/gcc/pic32mx/4.5.2/../../../../pic32mx/lib/libpic32.a(vector51.o)
                              /home/gombe/workspace/machikania/origdev/pic32/compiler/pic32-tools/bin/../lib/gcc/pic32mx/4.5.2/../../../../pic32mx/lib/./proc/32MX250F128B/default_isr_vectors.o (__vector_dispatch_51)
/home/gombe/workspace/machikania/origdev/pic32/compiler/pic32-tools/bin/../lib/gcc/pic32mx/4.5.2/../../../../pic32mx/lib/libpic32.a(vector52.o)
                              /home/gombe/workspace/machikania/origdev/pic32/compiler/pic32-tools/bin/../lib/gcc/pic32mx/4.5.2/../../../../pic32mx/lib/./proc/32MX250F128B/default_isr_vectors.o (__vector_dispatch_52)
/home/gombe/workspace/machikania/origdev/pic32/compiler/pic32-tools/bin/../lib/gcc/pic32mx/4.5.2/../../../../pic32mx/lib/libpic32.a(vector53.o)
                              /home/gombe/workspace/machikania/origdev/pic32/compiler/pic32-tools/bin/../lib/gcc/pic32mx/4.5.2/../../../../pic32mx/lib/./proc/32MX250F128B/default_isr_vectors.o (__vector_dispatch_53)
/home/gombe/workspace/machikania/origdev/pic32/compiler/pic32-tools/bin/../lib/gcc/pic32mx/4.5.2/../../../../pic32mx/lib/libpic32.a(vector54.o)
                              /home/gombe/workspace/machikania/origdev/pic32/compiler/pic32-tools/bin/../lib/gcc/pic32mx/4.5.2/../../../../pic32mx/lib/./proc/32MX250F128B/default_isr_vectors.o (__vector_dispatch_54)
/home/gombe/workspace/machikania/origdev/pic32/compiler/pic32-tools/bin/../lib/gcc/pic32mx/4.5.2/../../../../pic32mx/lib/libpic32.a(vector55.o)
                              /home/gombe/workspace/machikania/origdev/pic32/compiler/pic32-tools/bin/../lib/gcc/pic32mx/4.5.2/../../../../pic32mx/lib/./proc/32MX250F128B/default_isr_vectors.o (__vector_dispatch_55)
/home/gombe/workspace/machikania/origdev/pic32/compiler/pic32-tools/bin/../lib/gcc/pic32mx/4.5.2/../../../../pic32mx/lib/libpic32.a(vector56.o)
                              /home/gombe/workspace/machikania/origdev/pic32/compiler/pic32-tools/bin/../lib/gcc/pic32mx/4.5.2/../../../../pic32mx/lib/./proc/32MX250F128B/default_isr_vectors.o (__vector_dispatch_56)
/home/gombe/workspace/machikania/origdev/pic32/compiler/pic32-tools/bin/../lib/gcc/pic32mx/4.5.2/../../../../pic32mx/lib/libpic32.a(vector57.o)
                              /home/gombe/workspace/machikania/origdev/pic32/compiler/pic32-tools/bin/../lib/gcc/pic32mx/4.5.2/../../../../pic32mx/lib/./proc/32MX250F128B/default_isr_vectors.o (__vector_dispatch_57)
/home/gombe/workspace/machikania/origdev/pic32/compiler/pic32-tools/bin/../lib/gcc/pic32mx/4.5.2/../../../../pic32mx/lib/libpic32.a(vector58.o)
                              /home/gombe/workspace/machikania/origdev/pic32/compiler/pic32-tools/bin/../lib/gcc/pic32mx/4.5.2/../../../../pic32mx/lib/./proc/32MX250F128B/default_isr_vectors.o (__vector_dispatch_58)
/home/gombe/workspace/machikania/origdev/pic32/compiler/pic32-tools/bin/../lib/gcc/pic32mx/4.5.2/../../../../pic32mx/lib/libpic32.a(vector59.o)
                              /home/gombe/workspace/machikania/origdev/pic32/compiler/pic32-tools/bin/../lib/gcc/pic32mx/4.5.2/../../../../pic32mx/lib/./proc/32MX250F128B/default_isr_vectors.o (__vector_dispatch_59)
/home/gombe/workspace/machikania/origdev/pic32/compiler/pic32-tools/bin/../lib/gcc/pic32mx/4.5.2/../../../../pic32mx/lib/libpic32.a(vector60.o)
                              /home/gombe/workspace/machikania/origdev/pic32/compiler/pic32-tools/bin/../lib/gcc/pic32mx/4.5.2/../../../../pic32mx/lib/./proc/32MX250F128B/default_isr_vectors.o (__vector_dispatch_60)
/home/gombe/workspace/machikania/origdev/pic32/compiler/pic32-tools/bin/../lib/gcc/pic32mx/4.5.2/../../../../pic32mx/lib/libpic32.a(vector61.o)
                              /home/gombe/workspace/machikania/origdev/pic32/compiler/pic32-tools/bin/../lib/gcc/pic32mx/4.5.2/../../../../pic32mx/lib/./proc/32MX250F128B/default_isr_vectors.o (__vector_dispatch_61)
/home/gombe/workspace/machikania/origdev/pic32/compiler/pic32-tools/bin/../lib/gcc/pic32mx/4.5.2/../../../../pic32mx/lib/libpic32.a(vector62.o)
                              /home/gombe/workspace/machikania/origdev/pic32/compiler/pic32-tools/bin/../lib/gcc/pic32mx/4.5.2/../../../../pic32mx/lib/./proc/32MX250F128B/default_isr_vectors.o (__vector_dispatch_62)
/home/gombe/workspace/machikania/origdev/pic32/compiler/pic32-tools/bin/../lib/gcc/pic32mx/4.5.2/../../../../pic32mx/lib/libpic32.a(vector63.o)
                              /home/gombe/workspace/machikania/origdev/pic32/compiler/pic32-tools/bin/../lib/gcc/pic32mx/4.5.2/../../../../pic32mx/lib/./proc/32MX250F128B/default_isr_vectors.o (__vector_dispatch_63)
/home/gombe/workspace/machikania/origdev/pic32/compiler/pic32-tools/bin/../lib/gcc/pic32mx/4.5.2/../../../../pic32mx/lib/libpic32.a(_mon_putc.o)
                              /home/gombe/workspace/machikania/origdev/pic32/compiler/pic32-tools/bin/../lib/gcc/pic32mx/4.5.2/../../../../pic32mx/lib/libpic32.a(write.o) (_mon_putc)
/home/gombe/workspace/machikania/origdev/pic32/compiler/pic32-tools/bin/../lib/gcc/pic32mx/4.5.2/../../../../pic32mx/lib/libpic32.a(defaultinterrupt.o)
                              /home/gombe/workspace/machikania/origdev/pic32/compiler/pic32-tools/bin/../lib/gcc/pic32mx/4.5.2/../../../../pic32mx/lib/libpic32.a(vector0.o) (_DefaultInterrupt)
/home/gombe/workspace/machikania/origdev/pic32/compiler/pic32-tools/bin/../lib/gcc/pic32mx/4.5.2/libgcc.a(_udivdi3.o)
                              /home/gombe/workspace/machikania/origdev/pic32/compiler/pic32-tools/bin/../lib/gcc/pic32mx/4.5.2/../../../../pic32mx/lib/libc.a(lib_a-vfiprintf.o) (__udivdi3)
/home/gombe/workspace/machikania/origdev/pic32/compiler/pic32-tools/bin/../lib/gcc/pic32mx/4.5.2/libgcc.a(_umoddi3.o)
                              /home/gombe/workspace/machikania/origdev/pic32/compiler/pic32-tools/bin/../lib/gcc/pic32mx/4.5.2/../../../../pic32mx/lib/libc.a(lib_a-vfiprintf.o) (__umoddi3)
/home/gombe/workspace/machikania/origdev/pic32/compiler/pic32-tools/bin/../lib/gcc/pic32mx/4.5.2/libgcc.a(ledf2.o)
                              /home/gombe/workspace/machikania/origdev/pic32/compiler/pic32-tools/bin/../lib/gcc/pic32mx/4.5.2/../../../../pic32mx/lib/libc.a(lib_a-vfprintf.o) (__ltdf2)
/home/gombe/workspace/machikania/origdev/pic32/compiler/pic32-tools/bin/../lib/gcc/pic32mx/4.5.2/../../../../pic32mx/lib/libmchp_peripheral_32MX250F128B.a(osc_config_lib.o)
                              obj/newmain.o (OSCConfig)
/home/gombe/workspace/machikania/origdev/pic32/compiler/pic32-tools/bin/../lib/gcc/pic32mx/4.5.2/../../../../pic32mx/lib/libmchp_peripheral_32MX250F128B.a(int_disable_interrupts_lib.o)
                              /home/gombe/workspace/machikania/origdev/pic32/compiler/pic32-tools/bin/../lib/gcc/pic32mx/4.5.2/../../../../pic32mx/lib/libmchp_peripheral_32MX250F128B.a(osc_config_lib.o) (INTDisableInterrupts)
/home/gombe/workspace/machikania/origdev/pic32/compiler/pic32-tools/bin/../lib/gcc/pic32mx/4.5.2/../../../../pic32mx/lib/libmchp_peripheral_32MX250F128B.a(int_restore_interrupts_lib.o)
                              /home/gombe/workspace/machikania/origdev/pic32/compiler/pic32-tools/bin/../lib/gcc/pic32mx/4.5.2/../../../../pic32mx/lib/libmchp_peripheral_32MX250F128B.a(osc_config_lib.o) (INTRestoreInterrupts)
/home/gombe/workspace/machikania/origdev/pic32/compiler/pic32-tools/bin/../lib/gcc/pic32mx/4.5.2/../../../../pic32mx/lib/libmchp_peripheral_32MX250F128B.a(int_enable_mv_int_lib.o)
                              obj/composite32-high4.o (INTEnableSystemMultiVectoredInt)
/home/gombe/workspace/machikania/origdev/pic32/compiler/pic32-tools/bin/../lib/gcc/pic32mx/4.5.2/../../../../pic32mx/lib/libmchp_peripheral_32MX250F128B.a(spi_getc_spi2_lib_legacy.o)
                              obj/mmc_xmega.o (getcSPI2)
/home/gombe/workspace/machikania/origdev/pic32/compiler/pic32-tools/bin/../lib/gcc/pic32mx/4.5.2/../../../../pic32mx/lib/libmchp_peripheral_32MX250F128B.a(spi_open_spi2_lib_legacy.o)
                              obj/mmc_xmega.o (OpenSPI2)
/home/gombe/workspace/machikania/origdev/pic32/compiler/pic32-tools/bin/../lib/gcc/pic32mx/4.5.2/../../../../pic32mx/lib/libmchp_peripheral_32MX250F128B.a(spi_brg_tbl_lib_legacy.o)
                              /home/gombe/workspace/machikania/origdev/pic32/compiler/pic32-tools/bin/../lib/gcc/pic32mx/4.5.2/../../../../pic32mx/lib/libmchp_peripheral_32MX250F128B.a(spi_open_spi2_lib_legacy.o) (_SpiBrgConvTbl)
/home/gombe/workspace/machikania/origdev/pic32/compiler/pic32-tools/bin/../lib/gcc/pic32mx/4.5.2/../../../../pic32mx/lib/libmchp_peripheral_32MX250F128B.a(dma_chn_clr_ev_flags_lib.o)
                              obj/mmc_xmega.o (DmaChnClrEvFlags)
/home/gombe/workspace/machikania/origdev/pic32/compiler/pic32-tools/bin/../lib/gcc/pic32mx/4.5.2/../../../../pic32mx/lib/libmchp_peripheral_32MX250F128B.a(dma_chn_open_lib.o)
                              obj/mmc_xmega.o (DmaChnOpen)
/home/gombe/workspace/machikania/origdev/pic32/compiler/pic32-tools/bin/../lib/gcc/pic32mx/4.5.2/../../../../pic32mx/lib/libmchp_peripheral_32MX250F128B.a(dma_chn_enable_lib.o)
                              obj/mmc_xmega.o (DmaChnEnable)
/home/gombe/workspace/machikania/origdev/pic32/compiler/pic32-tools/bin/../lib/gcc/pic32mx/4.5.2/../../../../pic32mx/lib/libmchp_peripheral_32MX250F128B.a(dma_chn_get_ev_flags_lib.o)
                              obj/mmc_xmega.o (DmaChnGetEvFlags)
/home/gombe/workspace/machikania/origdev/pic32/compiler/pic32-tools/bin/../lib/gcc/pic32mx/4.5.2/../../../../pic32mx/lib/libmchp_peripheral_32MX250F128B.a(dma_chn_write_event_control_flags_lib.o)
                              obj/mmc_xmega.o (DmaChnWriteEventControlFlags)
/home/gombe/workspace/machikania/origdev/pic32/compiler/pic32-tools/bin/../lib/gcc/pic32mx/4.5.2/../../../../pic32mx/lib/libmchp_peripheral_32MX250F128B.a(dma_chn_set_txfer_lib.o)
                              obj/mmc_xmega.o (DmaChnSetTxfer)
/home/gombe/workspace/machikania/origdev/pic32/compiler/pic32-tools/bin/../lib/gcc/pic32mx/4.5.2/../../../../pic32mx/lib/libmchp_peripheral_32MX250F128B.a(dma_chn_start_txfer_lib.o)
                              obj/mmc_xmega.o (DmaChnStartTxfer)
/home/gombe/workspace/machikania/origdev/pic32/compiler/pic32-tools/bin/../lib/gcc/pic32mx/4.5.2/../../../../pic32mx/lib/libmchp_peripheral_32MX250F128B.a(dma_reg_map_tbl_lib.o)
                              /home/gombe/workspace/machikania/origdev/pic32/compiler/pic32-tools/bin/../lib/gcc/pic32mx/4.5.2/../../../../pic32mx/lib/libmchp_peripheral_32MX250F128B.a(dma_chn_clr_ev_flags_lib.o) (_DmaMapTbl)
/home/gombe/workspace/machikania/origdev/pic32/compiler/pic32-tools/bin/../lib/gcc/pic32mx/4.5.2/../../../../pic32mx/lib/libmchp_peripheral_32MX250F128B.a(int_enable_interrupts_lib.o)
                              /home/gombe/workspace/machikania/origdev/pic32/compiler/pic32-tools/bin/../lib/gcc/pic32mx/4.5.2/../../../../pic32mx/lib/libmchp_peripheral_32MX250F128B.a(int_enable_mv_int_lib.o) (INTEnableInterrupts)
/home/gombe/workspace/machikania/origdev/pic32/compiler/pic32-tools/bin/../lib/gcc/pic32mx/4.5.2/../../../../pic32mx/lib/libmchp_peripheral_32MX250F128B.a(int_tbl_lib.o)
                              /home/gombe/workspace/machikania/origdev/pic32/compiler/pic32-tools/bin/../lib/gcc/pic32mx/4.5.2/../../../../pic32mx/lib/libmchp_peripheral_32MX250F128B.a(dma_chn_open_lib.o) (INTClearFlag)
/home/gombe/workspace/machikania/origdev/pic32/compiler/pic32-tools/bin/../lib/gcc/pic32mx/4.5.2/../../../../pic32mx/lib/libc.a(lib_a-errno.o)
                              /home/gombe/workspace/machikania/origdev/pic32/compiler/pic32-tools/bin/../lib/gcc/pic32mx/4.5.2/../../../../pic32mx/lib/libpic32.a(sbrk.o) (__errno)

Allocating common symbols
Common symbol       size              file

xfunc_in            0x4               obj/xprintf.o
errno               0x4               /home/gombe/workspace/machikania/origdev/pic32/compiler/pic32-tools/bin/../lib/gcc/pic32mx/4.5.2/../../../../pic32mx/lib/libc.a(lib_a-reent.o)
xfunc_out           0x4               obj/xprintf.o

Microchip PIC32 Memory-Usage Report

kseg0 Program-Memory Usage
section                    address  length [bytes]      (dec)  Description
-------                 ----------  -------------------------  -----------
.init                   0x9d007490           0x24          36   
.fini                   0x9d0074b4           0x1c          28   
.ctors                  0x9d0074d0            0xc          12   
.dtors                  0x9d0074dc            0x8           8   
.text                   0x9d0074e4         0x6ecc       28364  App's exec code 
.rodata                 0x9d00e3b0         0x1c28        7208  Read-only const 
.text._vfprintf_r       0x9d00ffd8         0x1b10        6928   
.text                   0x9d011ae8         0x1590        5520  App's exec code 
.text._dtoa_r           0x9d013078         0x1350        4944   
.text                   0x9d0143c8         0x10c4        4292  App's exec code 
.text._vfiprintf_r      0x9d01548c          0xde4        3556   
.text                   0x9d016270          0xdd8        3544  App's exec code 
.text.__kernel_rem_pio2 0x9d017048          0xc50        3152   
.dinit                  0x9d017c98          0xb00        2816   
.text.__kernel_rem_pio2 0x9d018798          0xa30        2608   
.text                   0x9d0191c8          0x96c        2412  App's exec code 
.rodata                 0x9d019b34          0x800        2048  Read-only const 
.text                   0x9d01a334          0xf90        3984  App's exec code 
.text.__ieee754_rem_pio 0x9d01b2c4          0x6f4        1780   
.text.__kernel_tan      0x9d01b9b8          0x688        1672   
.text                   0x9d01c040          0x684        1668  App's exec code 
.text._malloc_r         0x9d01c6c4          0x664        1636   
.text._realloc_r        0x9d01cd28          0x514        1300   
.text.__ieee754_rem_pio 0x9d01d23c          0x4e0        1248   
.text.__sfvwrite_r      0x9d01d71c          0x4d0        1232   
.text                   0x9d01dbec         0x1a4c        6732  App's exec code 
.text.__kernel_cos      0x9d01f638          0x35c         860   
.rodata.two_over_pi.two 0x9d01f994          0x318         792   
.text.__kernel_sin      0x9d01fcac          0x2b0         688   
.text                   0x9d01ff5c          0x298         664  App's exec code 
.text._free_r           0x9d0201f4          0x270         624   
.text._fflush_r         0x9d020464          0x234         564   
.text.__kernel_cosf     0x9d020698          0x220         544   
.text.quorem            0x9d0208b8          0x204         516   
.kseg0_program_mem      0x9d020abc          0x200         512   
.text.__multiply        0x9d020cbc          0x1e4         484   
.text.__kernel_sinf     0x9d020ea0          0x1c4         452   
.text.floor             0x9d021064          0x1c4         452   
.text                   0x9d021228          0x1a8         424  App's exec code 
.text.__sinit           0x9d0213d0          0x194         404   
.text._sbrk_init        0x9d021564          0x194         404   
.text._fputwc_r         0x9d0216f8          0x184         388   
.text.__mdiff           0x9d02187c          0x180         384   
.text                   0x9d0219fc          0x178         376  App's exec code 
.text.__smakebuf_r      0x9d021b74          0x174         372   
.text.read              0x9d021ce8          0x174         372   
.text.scalbn            0x9d021e5c          0x168         360   
.text.OSCConfig         0x9d021fc4          0x168         360   
.text.__swbuf_r         0x9d02212c          0x164         356   
.text.__d2b             0x9d022290          0x138         312   
.text.__lshift          0x9d0223c8          0x130         304   
.text.scalbnf           0x9d0224f8          0x12c         300   
.text.__swsetup_r       0x9d022624          0x128         296   
.text._malloc_trim_r    0x9d02274c          0x11c         284   
.text                   0x9d022868          0x21c         540  App's exec code 
.text.__pow5mult        0x9d022a84          0x10c         268   
.text                   0x9d022b90          0x10c         268  App's exec code 
.rodata.two_over_pi.two 0x9d022c9c          0x108         264   
.text.__multadd         0x9d022da4          0x104         260   
.text.__sprint_r        0x9d022ea8          0x100         256   
.text                   0x9d022fa8           0xf8         248  App's exec code 
.text.floorf            0x9d0230a0           0xf8         248   
.text                   0x9d023198           0xf4         244  App's exec code 
.text._fclose_r         0x9d02328c           0xf4         244   
.text.sin               0x9d023380           0xec         236   
.text.cos               0x9d02346c           0xe4         228   
.text                   0x9d023550          0x1b4         436  App's exec code 
.text._mon_putc         0x9d023704           0xd0         208   
.text.sinf              0x9d0237d4           0xcc         204   
.rodata.__mprec_tens.__ 0x9d0238a0           0xc8         200   
.text.cosf              0x9d023968           0xc4         196   
.text._sbrk             0x9d023a2c           0xc4         196   
.text                   0x9d023af0           0xb8         184  App's exec code 
.text.__lo0bits         0x9d023ba8           0xb8         184   
.text._raise_r          0x9d023c60           0xb4         180   
.text._Balloc           0x9d023d14           0xac         172   
.text._calloc_r         0x9d023dc0           0xa4         164   
.text._fwalk            0x9d023e64           0x9c         156   
.text._wcrtomb_r        0x9d023f00           0x98         152   
.text.write             0x9d023f98           0x94         148   
.text.tan               0x9d02402c           0x90         144   
.rodata                 0x9d0240bc            0x4           4  Read-only const 
.rodata                 0x9d0240c0           0x88         136  Read-only const 
.text.__fpclassifyd     0x9d024148           0x84         132   
.rodata.npio2_hw.npio2_ 0x9d0241cc          0x100         256   
.rodata                 0x9d0242cc           0x7c         124  Read-only const 
.text.__swrite          0x9d024348           0x7c         124   
.text                   0x9d0243c4          0x168         360  App's exec code 
.text.memmove           0x9d02452c           0x78         120   
.text.__hi0bits         0x9d0245a4           0x78         120   
.text                   0x9d02461c          0x13c         316  App's exec code 
.text.__mcmp            0x9d024758           0x68         104   
.rodata                 0x9d0247c0           0x60          96  Read-only const 
.text.__assert_func     0x9d024820           0x58          88   
.text.__sseek           0x9d024878           0x50          80   
.text.sbrk              0x9d0248c8           0x50          80   
.text.__sread           0x9d024918           0x4c          76   
.text._write_r          0x9d024964           0x4c          76   
.text._lseek_r          0x9d0249b0           0x4c          76   
.text._read_r           0x9d0249fc           0x4c          76   
.rodata                 0x9d024a48           0x90         144  Read-only const 
.text._kill_r           0x9d024ad8           0x48          72   
.text._fstat_r          0x9d024b20           0x48          72   
.text                   0x9d024b68           0x44          68  App's exec code 
.rodata                 0x9d024bac           0x44          68  Read-only const 
.text._sbrk_r           0x9d024bf0           0x44          68   
.text._close_r          0x9d024c34           0x44          68   
.text._isatty_r         0x9d024c78           0x44          68   
.text                   0x9d024cbc           0x44          68  App's exec code 
.rodata.PIo2.PIo2       0x9d024d00           0x40          64   
.rodata                 0x9d024d40           0x3c          60  Read-only const 
.rodata                 0x9d024d7c            0x4           4  Read-only const 
.rodata                 0x9d024d80           0x38          56  Read-only const 
.text.fiprintf          0x9d024db8           0x38          56   
.text.printf            0x9d024df0           0x38          56   
.text._bootstrap_except 0x9d024e28           0x38          56   
.text.main_entry        0x9d024e60           0x34          52   
.text.__i2b             0x9d024e94           0x34          52   
.text.__ascii_wctomb    0x9d024ec8           0x34          52   
.text.INTEnableSystemMu 0x9d024efc           0x34          52   
.rodata                 0x9d024f30           0x60          96  Read-only const 
.text.memchr            0x9d024f90           0x30          48   
.text.memcpy            0x9d024fc0           0x30          48   
.vector_default         0x9d024ff0           0x30          48   
.rodata.PIo2.PIo2       0x9d025020           0x2c          44   
.text._Bfree            0x9d02504c           0x2c          44   
.text._stub_sbd_memlayo 0x9d025078           0x2c          44   
.rodata                 0x9d0250a8           0x50          80  Read-only const 
.text.memset            0x9d0250f8           0x28          40   
.rodata.__mprec_bigtens 0x9d025120           0x28          40   
.rodata                 0x9d025148           0x84         132  Read-only const 
.text.copysign          0x9d0251cc           0x1c          28   
.text.INTRestoreInterru 0x9d0251e8           0x1c          28   
.rodata                 0x9d025204           0x18          24  Read-only const 
.text.abort             0x9d02521c           0x18          24   
.text                   0x9d025234           0x30          48  App's exec code 
.text.copysignf         0x9d025264           0x14          20   
.rodata                 0x9d025278           0x14          20  Read-only const 
.text.fstat             0x9d02528c           0x14          20   
.rodata.init_jk.init_jk 0x9d0252a0           0x10          16   
.text.fabs              0x9d0252b0           0x10          16   
.rodata                 0x9d0252c0           0x10          16  Read-only const 
.rodata.zeroes.3920.zer 0x9d0252d0           0x10          16   
.rodata.blanks.3919.bla 0x9d0252e0           0x10          16   
.rodata.zeroes.3977.zer 0x9d0252f0           0x10          16   
.rodata.blanks.3976.bla 0x9d025300           0x10          16   
.rodata                 0x9d025310            0xc          12  Read-only const 
.rodata.init_jk.init_jk 0x9d02531c            0xc          12   
.text._cleanup_r        0x9d025328            0xc          12   
.text.__locale_charset  0x9d025334            0xc          12   
.text._localeconv_r     0x9d025340            0xc          12   
.rodata.p05.2491.p05    0x9d02534c            0xc          12   
.text.raise             0x9d025358            0xc          12   
.text.fclose            0x9d025364            0xc          12   
.text.fabsf             0x9d025370            0x8           8   
.rodata                 0x9d025378            0x8           8  Read-only const 
.text.__locale_mb_cur_m 0x9d025380            0x8           8   
.text.__malloc_lock     0x9d025388            0x8           8   
.text.__malloc_unlock   0x9d025390            0x8           8   
.text._getpid_r         0x9d025398            0x8           8   
.text.__sclose          0x9d0253a0            0x8           8   
.text._on_reset         0x9d0253a8            0x8           8   
.text._on_bootstrap     0x9d0253b0            0x8           8   
.text._exit             0x9d0253b8            0x8           8   
.text.isatty            0x9d0253c0            0x8           8   
.text.lseek             0x9d0253c8            0x8           8   
.text.close             0x9d0253d0            0x8           8   
.text.kill              0x9d0253d8            0x8           8   
.text.getpid            0x9d0253e0            0x8           8   
.text.INTDisableInterru 0x9d0253e8            0x8           8   
.text.INTEnableInterrup 0x9d0253f0            0x8           8   
.text.__errno           0x9d0253f8            0x8           8   
      Total kseg0_program_mem used  :     0x1df6c      122732  52.8% of 0x38b70

kseg0 Boot-Memory Usage
section                    address  length [bytes]      (dec)  Description
-------                 ----------  -------------------------  -----------
         Total kseg0_boot_mem used  :           0           0  

Exception-Memory Usage 
section                    address  length [bytes]      (dec)  Description
-------                 ----------  -------------------------  -----------
.app_excpt              0x9d006180           0x10          16  General-Exception 
.vector_0               0x9d006200            0x8           8  Interrupt Vector 0 
.vector_1               0x9d006220            0x8           8  Interrupt Vector 1 
.vector_2               0x9d006240            0x8           8  Interrupt Vector 2 
.vector_3               0x9d006260            0x8           8  Interrupt Vector 3 
.vector_4               0x9d006280            0x8           8  Interrupt Vector 4 
.vector_5               0x9d0062a0            0x8           8  Interrupt Vector 5 
.vector_6               0x9d0062c0            0x8           8  Interrupt Vector 6 
.vector_7               0x9d0062e0            0x8           8  Interrupt Vector 7 
.vector_8               0x9d006300            0x8           8  Interrupt Vector 8 
.vector_9               0x9d006320            0x8           8  Interrupt Vector 9 
.vector_10              0x9d006340            0x8           8  Interrupt Vector 10 
.vector_11              0x9d006360            0x8           8  Interrupt Vector 11 
.vector_12              0x9d006380            0x8           8  Interrupt Vector 12 
.vector_13              0x9d0063a0            0x8           8  Interrupt Vector 13 
.vector_14              0x9d0063c0            0x8           8  Interrupt Vector 14 
.vector_15              0x9d0063e0            0x8           8  Interrupt Vector 15 
.vector_16              0x9d006400            0x8           8  Interrupt Vector 16 
.vector_17              0x9d006420            0x8           8  Interrupt Vector 17 
.vector_18              0x9d006440            0x8           8  Interrupt Vector 18 
.vector_19              0x9d006460            0x8           8  Interrupt Vector 19 
.vector_20              0x9d006480            0x8           8  Interrupt Vector 20 
.vector_21              0x9d0064a0            0x8           8  Interrupt Vector 21 
.vector_22              0x9d0064c0            0x8           8  Interrupt Vector 22 
.vector_23              0x9d0064e0            0x8           8  Interrupt Vector 23 
.vector_24              0x9d006500            0x8           8  Interrupt Vector 24 
.vector_25              0x9d006520            0x8           8  Interrupt Vector 25 
.vector_26              0x9d006540            0x8           8  Interrupt Vector 26 
.vector_27              0x9d006560            0x8           8  Interrupt Vector 27 
.vector_28              0x9d006580            0x8           8  Interrupt Vector 28 
.vector_29              0x9d0065a0            0x8           8  Interrupt Vector 29 
.vector_30              0x9d0065c0            0x8           8  Interrupt Vector 30 
.vector_31              0x9d0065e0            0x8           8  Interrupt Vector 31 
.vector_32              0x9d006600            0x8           8  Interrupt Vector 32 
.vector_33              0x9d006620            0x8           8  Interrupt Vector 33 
.vector_34              0x9d006640            0x8           8  Interrupt Vector 34 
.vector_35              0x9d006660            0x8           8  Interrupt Vector 35 
.vector_36              0x9d006680            0x8           8  Interrupt Vector 36 
.vector_37              0x9d0066a0            0x8           8  Interrupt Vector 37 
.vector_38              0x9d0066c0            0x8           8  Interrupt Vector 38 
.vector_39              0x9d0066e0            0x8           8  Interrupt Vector 39 
.vector_40              0x9d006700            0x8           8  Interrupt Vector 40 
.vector_41              0x9d006720            0x8           8  Interrupt Vector 41 
.vector_42              0x9d006740            0x8           8  Interrupt Vector 42 
.vector_43              0x9d006760            0x8           8  Interrupt Vector 43 
.vector_44              0x9d006780            0x8           8  Interrupt Vector 44 
.vector_45              0x9d0067a0            0x8           8  Interrupt Vector 45 
.vector_46              0x9d0067c0            0x8           8  Interrupt Vector 46 
.vector_47              0x9d0067e0            0x8           8  Interrupt Vector 47 
.vector_48              0x9d006800            0x8           8  Interrupt Vector 48 
.vector_49              0x9d006820            0x8           8  Interrupt Vector 49 
.vector_50              0x9d006840            0x8           8  Interrupt Vector 50 
.vector_51              0x9d006860            0x8           8  Interrupt Vector 51 
.vector_52              0x9d006880            0x8           8  Interrupt Vector 52 
.vector_53              0x9d0068a0            0x8           8  Interrupt Vector 53 
.vector_54              0x9d0068c0            0x8           8  Interrupt Vector 54 
.vector_55              0x9d0068e0            0x8           8  Interrupt Vector 55 
.vector_56              0x9d006900            0x8           8  Interrupt Vector 56 
.vector_57              0x9d006920            0x8           8  Interrupt Vector 57 
.vector_58              0x9d006940            0x8           8  Interrupt Vector 58 
.vector_59              0x9d006960            0x8           8  Interrupt Vector 59 
.vector_60              0x9d006980            0x8           8  Interrupt Vector 60 
.vector_61              0x9d0069a0            0x8           8  Interrupt Vector 61 
.vector_62              0x9d0069c0            0x8           8  Interrupt Vector 62 
.vector_63              0x9d0069e0            0x8           8  Interrupt Vector 63 
          Total exception_mem used  :       0x210         528  12.9% of 0x1000

kseg1 Boot-Memory Usage
section                    address  length [bytes]      (dec)  Description
-------                 ----------  -------------------------  -----------
.reset                  0x9d007000            0x8           8  Reset handler 
.bev_excpt              0x9d007380           0x10          16  BEV-Exception 
         Total kseg1_boot_mem used  :        0x18          24  2.1% of 0x490
        --------------------------------------------------------------------------
         Total Program Memory used  :     0x1e194      123284  51.9% of 0x3a000
        --------------------------------------------------------------------------


kseg1 Data-Memory Usage
section                    address  length [bytes]      (dec)  Description
-------                 ----------  -------------------------  -----------
.jcr                    0xa0000000            0x4           4   
.eh_frame               0xa0000004           0x54          84   
.sdata                  0xa0000058           0x30          48  Small init data 
.sbss                   0xa0000088           0x54          84  Small uninit data 
.bss                    0xa00000dc         0xbe44       48708  Uninitialized data 
.data.impure_data.impur 0xa000bf20          0x418        1048   
.data.__malloc_av_.__ma 0xa000c338          0x408        1032   
.data.lconv.lconv       0xa000c740           0x38          56   
.bss.__malloc_current_m 0xa000c778           0x28          40   
.bss                    0xa000c7a0           0x20          32  Uninitialized data 
.data.lc_ctype_charset. 0xa000c7c0           0x20          32   
.bss.mem.1180.mem       0xa000c7e0           0x18          24   
.bss.curbrk.curbrk      0xa000c7f8            0x4           4   
         Total kseg1_data_mem used  :      0xc7fc       51196  78.1% of 0x10000
        --------------------------------------------------------------------------
            Total Data Memory used  :      0xc7fc       51196  78.1% of 0x10000
        --------------------------------------------------------------------------


Dynamic Data-Memory Reservation
section                    address  length [bytes]      (dec)  Description
-------                 ----------  -------------------------  -----------
heap                    0xa000c800          0x200         512  Reserved for heap 
stack                   0xa000ca18         0x35d8       13784  Reserved for stack 

        --------------------------------------------------------------------------

Discarded input sections

 .text          0x00000000     0x1240 obj/xprintf.o
 .data          0x00000000        0x0 obj/xprintf.o
 .bss           0x00000000        0x0 obj/xprintf.o
 .rodata        0x00000000       0x20 obj/xprintf.o
 .text          0x00000000     0x3274 obj/ff.o
 .data          0x00000000        0x0 obj/ff.o
 .bss           0x00000000        0x0 obj/ff.o
 .reginfo       0x00000000       0x18 obj/ff.o
 .rodata        0x00000000       0x10 obj/ff.o
 .text          0x00000000     0x14a0 obj/mmc_xmega.o
 .data          0x00000000      0x200 obj/mmc_xmega.o
 .bss           0x00000000        0x0 obj/mmc_xmega.o
 .reginfo       0x00000000       0x18 obj/mmc_xmega.o
 .data          0x00000000        0x0 obj/matrix4.o
 .bss           0x00000000        0x0 obj/matrix4.o
 .reginfo       0x00000000       0x18 obj/matrix4.o
 .data          0x00000000        0x0 obj/triangle.o
 .bss           0x00000000        0x0 obj/triangle.o
 .reginfo       0x00000000       0x18 obj/triangle.o
 .data          0x00000000        0x0 obj/vector2.o
 .bss           0x00000000        0x0 obj/vector2.o
 .reginfo       0x00000000       0x18 obj/vector2.o
 .data          0x00000000        0x0 obj/newmain.o
 .reginfo       0x00000000       0x18 obj/newmain.o
 .text          0x00000000        0x0 obj/graphiclib.o
 .data          0x00000000        0x0 obj/graphiclib.o
 .bss           0x00000000        0x0 obj/graphiclib.o
 .reginfo       0x00000000       0x18 obj/graphiclib.o
 .data          0x00000000        0x0 obj/vector3.o
 .bss           0x00000000        0x0 obj/vector3.o
 .reginfo       0x00000000       0x18 obj/vector3.o
 .data          0x00000000        0x0 obj/graphicdraw.o
 .bss           0x00000000        0x0 obj/graphicdraw.o
 .reginfo       0x00000000       0x18 obj/graphicdraw.o
 .data          0x00000000        0x0 obj/maze.o
 .reginfo       0x00000000       0x18 obj/maze.o
 .data          0x00000000        0x0 obj/composite32-high4.o
 .reginfo       0x00000000       0x18 obj/composite32-high4.o
 .text          0x00000000        0x0 obj/crtn.o
 .data          0x00000000        0x0 obj/crtn.o
 .bss           0x00000000        0x0 obj/crtn.o
 .reginfo       0x00000000       0x18 obj/crtn.o
 .text          0x00000000        0x0 obj/crti.o
 .data          0x00000000        0x0 obj/crti.o
 .bss           0x00000000        0x0 obj/crti.o
 .reginfo       0x00000000       0x18 obj/crti.o
 .text          0x00000000        0x0 obj/crt0.o
 .data          0x00000000        0x0 obj/crt0.o
 .bss           0x00000000        0x0 obj/crt0.o
 .reginfo       0x00000000       0x18 obj/crt0.o
 .data          0x00000000        0x4 ../../pic32/compiler/pic32-tools/bin/../lib/gcc/pic32mx/4.5.2/crtend.o
 .bss           0x00000000        0x0 ../../pic32/compiler/pic32-tools/bin/../lib/gcc/pic32mx/4.5.2/crtend.o
 .reginfo       0x00000000       0x18 ../../pic32/compiler/pic32-tools/bin/../lib/gcc/pic32mx/4.5.2/crtend.o
 .rodata        0x00000000        0x8 ../../pic32/compiler/pic32-tools/bin/../lib/gcc/pic32mx/4.5.2/crtend.o
 .data          0x00000000        0x4 ../../pic32/compiler/pic32-tools/bin/../lib/gcc/pic32mx/4.5.2/crtbegin.o
 .reginfo       0x00000000       0x18 ../../pic32/compiler/pic32-tools/bin/../lib/gcc/pic32mx/4.5.2/crtbegin.o
 .rodata        0x00000000        0x8 ../../pic32/compiler/pic32-tools/bin/../lib/gcc/pic32mx/4.5.2/crtbegin.o
 .text          0x00000000        0x0 /home/gombe/workspace/machikania/origdev/pic32/compiler/pic32-tools/bin/../lib/gcc/pic32mx/4.5.2/../../../../pic32mx/lib/libm.a(lib_a-s_cos.o)
 .data          0x00000000        0x0 /home/gombe/workspace/machikania/origdev/pic32/compiler/pic32-tools/bin/../lib/gcc/pic32mx/4.5.2/../../../../pic32mx/lib/libm.a(lib_a-s_cos.o)
 .bss           0x00000000        0x0 /home/gombe/workspace/machikania/origdev/pic32/compiler/pic32-tools/bin/../lib/gcc/pic32mx/4.5.2/../../../../pic32mx/lib/libm.a(lib_a-s_cos.o)
 .reginfo       0x00000000       0x18 /home/gombe/workspace/machikania/origdev/pic32/compiler/pic32-tools/bin/../lib/gcc/pic32mx/4.5.2/../../../../pic32mx/lib/libm.a(lib_a-s_cos.o)
 .text          0x00000000        0x0 /home/gombe/workspace/machikania/origdev/pic32/compiler/pic32-tools/bin/../lib/gcc/pic32mx/4.5.2/../../../../pic32mx/lib/libm.a(lib_a-sf_cos.o)
 .data          0x00000000        0x0 /home/gombe/workspace/machikania/origdev/pic32/compiler/pic32-tools/bin/../lib/gcc/pic32mx/4.5.2/../../../../pic32mx/lib/libm.a(lib_a-sf_cos.o)
 .bss           0x00000000        0x0 /home/gombe/workspace/machikania/origdev/pic32/compiler/pic32-tools/bin/../lib/gcc/pic32mx/4.5.2/../../../../pic32mx/lib/libm.a(lib_a-sf_cos.o)
 .reginfo       0x00000000       0x18 /home/gombe/workspace/machikania/origdev/pic32/compiler/pic32-tools/bin/../lib/gcc/pic32mx/4.5.2/../../../../pic32mx/lib/libm.a(lib_a-sf_cos.o)
 .text          0x00000000        0x0 /home/gombe/workspace/machikania/origdev/pic32/compiler/pic32-tools/bin/../lib/gcc/pic32mx/4.5.2/../../../../pic32mx/lib/libm.a(lib_a-sf_sin.o)
 .data          0x00000000        0x0 /home/gombe/workspace/machikania/origdev/pic32/compiler/pic32-tools/bin/../lib/gcc/pic32mx/4.5.2/../../../../pic32mx/lib/libm.a(lib_a-sf_sin.o)
 .bss           0x00000000        0x0 /home/gombe/workspace/machikania/origdev/pic32/compiler/pic32-tools/bin/../lib/gcc/pic32mx/4.5.2/../../../../pic32mx/lib/libm.a(lib_a-sf_sin.o)
 .reginfo       0x00000000       0x18 /home/gombe/workspace/machikania/origdev/pic32/compiler/pic32-tools/bin/../lib/gcc/pic32mx/4.5.2/../../../../pic32mx/lib/libm.a(lib_a-sf_sin.o)
 .text          0x00000000        0x0 /home/gombe/workspace/machikania/origdev/pic32/compiler/pic32-tools/bin/../lib/gcc/pic32mx/4.5.2/../../../../pic32mx/lib/libm.a(lib_a-s_sin.o)
 .data          0x00000000        0x0 /home/gombe/workspace/machikania/origdev/pic32/compiler/pic32-tools/bin/../lib/gcc/pic32mx/4.5.2/../../../../pic32mx/lib/libm.a(lib_a-s_sin.o)
 .bss           0x00000000        0x0 /home/gombe/workspace/machikania/origdev/pic32/compiler/pic32-tools/bin/../lib/gcc/pic32mx/4.5.2/../../../../pic32mx/lib/libm.a(lib_a-s_sin.o)
 .reginfo       0x00000000       0x18 /home/gombe/workspace/machikania/origdev/pic32/compiler/pic32-tools/bin/../lib/gcc/pic32mx/4.5.2/../../../../pic32mx/lib/libm.a(lib_a-s_sin.o)
 .text          0x00000000        0x0 /home/gombe/workspace/machikania/origdev/pic32/compiler/pic32-tools/bin/../lib/gcc/pic32mx/4.5.2/../../../../pic32mx/lib/libm.a(lib_a-s_tan.o)
 .data          0x00000000        0x0 /home/gombe/workspace/machikania/origdev/pic32/compiler/pic32-tools/bin/../lib/gcc/pic32mx/4.5.2/../../../../pic32mx/lib/libm.a(lib_a-s_tan.o)
 .bss           0x00000000        0x0 /home/gombe/workspace/machikania/origdev/pic32/compiler/pic32-tools/bin/../lib/gcc/pic32mx/4.5.2/../../../../pic32mx/lib/libm.a(lib_a-s_tan.o)
 .reginfo       0x00000000       0x18 /home/gombe/workspace/machikania/origdev/pic32/compiler/pic32-tools/bin/../lib/gcc/pic32mx/4.5.2/../../../../pic32mx/lib/libm.a(lib_a-s_tan.o)
 .text          0x00000000        0x0 /home/gombe/workspace/machikania/origdev/pic32/compiler/pic32-tools/bin/../lib/gcc/pic32mx/4.5.2/../../../../pic32mx/lib/libm.a(lib_a-ef_rem_pio2.o)
 .data          0x00000000        0x0 /home/gombe/workspace/machikania/origdev/pic32/compiler/pic32-tools/bin/../lib/gcc/pic32mx/4.5.2/../../../../pic32mx/lib/libm.a(lib_a-ef_rem_pio2.o)
 .bss           0x00000000        0x0 /home/gombe/workspace/machikania/origdev/pic32/compiler/pic32-tools/bin/../lib/gcc/pic32mx/4.5.2/../../../../pic32mx/lib/libm.a(lib_a-ef_rem_pio2.o)
 .reginfo       0x00000000       0x18 /home/gombe/workspace/machikania/origdev/pic32/compiler/pic32-tools/bin/../lib/gcc/pic32mx/4.5.2/../../../../pic32mx/lib/libm.a(lib_a-ef_rem_pio2.o)
 .text          0x00000000        0x0 /home/gombe/workspace/machikania/origdev/pic32/compiler/pic32-tools/bin/../lib/gcc/pic32mx/4.5.2/../../../../pic32mx/lib/libm.a(lib_a-e_rem_pio2.o)
 .data          0x00000000        0x0 /home/gombe/workspace/machikania/origdev/pic32/compiler/pic32-tools/bin/../lib/gcc/pic32mx/4.5.2/../../../../pic32mx/lib/libm.a(lib_a-e_rem_pio2.o)
 .bss           0x00000000        0x0 /home/gombe/workspace/machikania/origdev/pic32/compiler/pic32-tools/bin/../lib/gcc/pic32mx/4.5.2/../../../../pic32mx/lib/libm.a(lib_a-e_rem_pio2.o)
 .reginfo       0x00000000       0x18 /home/gombe/workspace/machikania/origdev/pic32/compiler/pic32-tools/bin/../lib/gcc/pic32mx/4.5.2/../../../../pic32mx/lib/libm.a(lib_a-e_rem_pio2.o)
 .text          0x00000000        0x0 /home/gombe/workspace/machikania/origdev/pic32/compiler/pic32-tools/bin/../lib/gcc/pic32mx/4.5.2/../../../../pic32mx/lib/libm.a(lib_a-k_cos.o)
 .data          0x00000000        0x0 /home/gombe/workspace/machikania/origdev/pic32/compiler/pic32-tools/bin/../lib/gcc/pic32mx/4.5.2/../../../../pic32mx/lib/libm.a(lib_a-k_cos.o)
 .bss           0x00000000        0x0 /home/gombe/workspace/machikania/origdev/pic32/compiler/pic32-tools/bin/../lib/gcc/pic32mx/4.5.2/../../../../pic32mx/lib/libm.a(lib_a-k_cos.o)
 .reginfo       0x00000000       0x18 /home/gombe/workspace/machikania/origdev/pic32/compiler/pic32-tools/bin/../lib/gcc/pic32mx/4.5.2/../../../../pic32mx/lib/libm.a(lib_a-k_cos.o)
 .text          0x00000000        0x0 /home/gombe/workspace/machikania/origdev/pic32/compiler/pic32-tools/bin/../lib/gcc/pic32mx/4.5.2/../../../../pic32mx/lib/libm.a(lib_a-kf_cos.o)
 .data          0x00000000        0x0 /home/gombe/workspace/machikania/origdev/pic32/compiler/pic32-tools/bin/../lib/gcc/pic32mx/4.5.2/../../../../pic32mx/lib/libm.a(lib_a-kf_cos.o)
 .bss           0x00000000        0x0 /home/gombe/workspace/machikania/origdev/pic32/compiler/pic32-tools/bin/../lib/gcc/pic32mx/4.5.2/../../../../pic32mx/lib/libm.a(lib_a-kf_cos.o)
 .reginfo       0x00000000       0x18 /home/gombe/workspace/machikania/origdev/pic32/compiler/pic32-tools/bin/../lib/gcc/pic32mx/4.5.2/../../../../pic32mx/lib/libm.a(lib_a-kf_cos.o)
 .text          0x00000000        0x0 /home/gombe/workspace/machikania/origdev/pic32/compiler/pic32-tools/bin/../lib/gcc/pic32mx/4.5.2/../../../../pic32mx/lib/libm.a(lib_a-kf_rem_pio2.o)
 .data          0x00000000        0x0 /home/gombe/workspace/machikania/origdev/pic32/compiler/pic32-tools/bin/../lib/gcc/pic32mx/4.5.2/../../../../pic32mx/lib/libm.a(lib_a-kf_rem_pio2.o)
 .bss           0x00000000        0x0 /home/gombe/workspace/machikania/origdev/pic32/compiler/pic32-tools/bin/../lib/gcc/pic32mx/4.5.2/../../../../pic32mx/lib/libm.a(lib_a-kf_rem_pio2.o)
 .reginfo       0x00000000       0x18 /home/gombe/workspace/machikania/origdev/pic32/compiler/pic32-tools/bin/../lib/gcc/pic32mx/4.5.2/../../../../pic32mx/lib/libm.a(lib_a-kf_rem_pio2.o)
 .text          0x00000000        0x0 /home/gombe/workspace/machikania/origdev/pic32/compiler/pic32-tools/bin/../lib/gcc/pic32mx/4.5.2/../../../../pic32mx/lib/libm.a(lib_a-kf_sin.o)
 .data          0x00000000        0x0 /home/gombe/workspace/machikania/origdev/pic32/compiler/pic32-tools/bin/../lib/gcc/pic32mx/4.5.2/../../../../pic32mx/lib/libm.a(lib_a-kf_sin.o)
 .bss           0x00000000        0x0 /home/gombe/workspace/machikania/origdev/pic32/compiler/pic32-tools/bin/../lib/gcc/pic32mx/4.5.2/../../../../pic32mx/lib/libm.a(lib_a-kf_sin.o)
 .reginfo       0x00000000       0x18 /home/gombe/workspace/machikania/origdev/pic32/compiler/pic32-tools/bin/../lib/gcc/pic32mx/4.5.2/../../../../pic32mx/lib/libm.a(lib_a-kf_sin.o)
 .text          0x00000000        0x0 /home/gombe/workspace/machikania/origdev/pic32/compiler/pic32-tools/bin/../lib/gcc/pic32mx/4.5.2/../../../../pic32mx/lib/libm.a(lib_a-k_rem_pio2.o)
 .data          0x00000000        0x0 /home/gombe/workspace/machikania/origdev/pic32/compiler/pic32-tools/bin/../lib/gcc/pic32mx/4.5.2/../../../../pic32mx/lib/libm.a(lib_a-k_rem_pio2.o)
 .bss           0x00000000        0x0 /home/gombe/workspace/machikania/origdev/pic32/compiler/pic32-tools/bin/../lib/gcc/pic32mx/4.5.2/../../../../pic32mx/lib/libm.a(lib_a-k_rem_pio2.o)
 .reginfo       0x00000000       0x18 /home/gombe/workspace/machikania/origdev/pic32/compiler/pic32-tools/bin/../lib/gcc/pic32mx/4.5.2/../../../../pic32mx/lib/libm.a(lib_a-k_rem_pio2.o)
 .text          0x00000000        0x0 /home/gombe/workspace/machikania/origdev/pic32/compiler/pic32-tools/bin/../lib/gcc/pic32mx/4.5.2/../../../../pic32mx/lib/libm.a(lib_a-k_sin.o)
 .data          0x00000000        0x0 /home/gombe/workspace/machikania/origdev/pic32/compiler/pic32-tools/bin/../lib/gcc/pic32mx/4.5.2/../../../../pic32mx/lib/libm.a(lib_a-k_sin.o)
 .bss           0x00000000        0x0 /home/gombe/workspace/machikania/origdev/pic32/compiler/pic32-tools/bin/../lib/gcc/pic32mx/4.5.2/../../../../pic32mx/lib/libm.a(lib_a-k_sin.o)
 .reginfo       0x00000000       0x18 /home/gombe/workspace/machikania/origdev/pic32/compiler/pic32-tools/bin/../lib/gcc/pic32mx/4.5.2/../../../../pic32mx/lib/libm.a(lib_a-k_sin.o)
 .text          0x00000000        0x0 /home/gombe/workspace/machikania/origdev/pic32/compiler/pic32-tools/bin/../lib/gcc/pic32mx/4.5.2/../../../../pic32mx/lib/libm.a(lib_a-k_tan.o)
 .data          0x00000000        0x0 /home/gombe/workspace/machikania/origdev/pic32/compiler/pic32-tools/bin/../lib/gcc/pic32mx/4.5.2/../../../../pic32mx/lib/libm.a(lib_a-k_tan.o)
 .bss           0x00000000        0x0 /home/gombe/workspace/machikania/origdev/pic32/compiler/pic32-tools/bin/../lib/gcc/pic32mx/4.5.2/../../../../pic32mx/lib/libm.a(lib_a-k_tan.o)
 .reginfo       0x00000000       0x18 /home/gombe/workspace/machikania/origdev/pic32/compiler/pic32-tools/bin/../lib/gcc/pic32mx/4.5.2/../../../../pic32mx/lib/libm.a(lib_a-k_tan.o)
 .text          0x00000000        0x0 /home/gombe/workspace/machikania/origdev/pic32/compiler/pic32-tools/bin/../lib/gcc/pic32mx/4.5.2/../../../../pic32mx/lib/libm.a(lib_a-s_fabs.o)
 .data          0x00000000        0x0 /home/gombe/workspace/machikania/origdev/pic32/compiler/pic32-tools/bin/../lib/gcc/pic32mx/4.5.2/../../../../pic32mx/lib/libm.a(lib_a-s_fabs.o)
 .bss           0x00000000        0x0 /home/gombe/workspace/machikania/origdev/pic32/compiler/pic32-tools/bin/../lib/gcc/pic32mx/4.5.2/../../../../pic32mx/lib/libm.a(lib_a-s_fabs.o)
 .reginfo       0x00000000       0x18 /home/gombe/workspace/machikania/origdev/pic32/compiler/pic32-tools/bin/../lib/gcc/pic32mx/4.5.2/../../../../pic32mx/lib/libm.a(lib_a-s_fabs.o)
 .text          0x00000000        0x0 /home/gombe/workspace/machikania/origdev/pic32/compiler/pic32-tools/bin/../lib/gcc/pic32mx/4.5.2/../../../../pic32mx/lib/libm.a(lib_a-sf_fabs.o)
 .data          0x00000000        0x0 /home/gombe/workspace/machikania/origdev/pic32/compiler/pic32-tools/bin/../lib/gcc/pic32mx/4.5.2/../../../../pic32mx/lib/libm.a(lib_a-sf_fabs.o)
 .bss           0x00000000        0x0 /home/gombe/workspace/machikania/origdev/pic32/compiler/pic32-tools/bin/../lib/gcc/pic32mx/4.5.2/../../../../pic32mx/lib/libm.a(lib_a-sf_fabs.o)
 .reginfo       0x00000000       0x18 /home/gombe/workspace/machikania/origdev/pic32/compiler/pic32-tools/bin/../lib/gcc/pic32mx/4.5.2/../../../../pic32mx/lib/libm.a(lib_a-sf_fabs.o)
 .text          0x00000000        0x0 /home/gombe/workspace/machikania/origdev/pic32/compiler/pic32-tools/bin/../lib/gcc/pic32mx/4.5.2/../../../../pic32mx/lib/libm.a(lib_a-sf_floor.o)
 .data          0x00000000        0x0 /home/gombe/workspace/machikania/origdev/pic32/compiler/pic32-tools/bin/../lib/gcc/pic32mx/4.5.2/../../../../pic32mx/lib/libm.a(lib_a-sf_floor.o)
 .bss           0x00000000        0x0 /home/gombe/workspace/machikania/origdev/pic32/compiler/pic32-tools/bin/../lib/gcc/pic32mx/4.5.2/../../../../pic32mx/lib/libm.a(lib_a-sf_floor.o)
 .reginfo       0x00000000       0x18 /home/gombe/workspace/machikania/origdev/pic32/compiler/pic32-tools/bin/../lib/gcc/pic32mx/4.5.2/../../../../pic32mx/lib/libm.a(lib_a-sf_floor.o)
 .text          0x00000000        0x0 /home/gombe/workspace/machikania/origdev/pic32/compiler/pic32-tools/bin/../lib/gcc/pic32mx/4.5.2/../../../../pic32mx/lib/libm.a(lib_a-s_floor.o)
 .data          0x00000000        0x0 /home/gombe/workspace/machikania/origdev/pic32/compiler/pic32-tools/bin/../lib/gcc/pic32mx/4.5.2/../../../../pic32mx/lib/libm.a(lib_a-s_floor.o)
 .bss           0x00000000        0x0 /home/gombe/workspace/machikania/origdev/pic32/compiler/pic32-tools/bin/../lib/gcc/pic32mx/4.5.2/../../../../pic32mx/lib/libm.a(lib_a-s_floor.o)
 .reginfo       0x00000000       0x18 /home/gombe/workspace/machikania/origdev/pic32/compiler/pic32-tools/bin/../lib/gcc/pic32mx/4.5.2/../../../../pic32mx/lib/libm.a(lib_a-s_floor.o)
 .text          0x00000000        0x0 /home/gombe/workspace/machikania/origdev/pic32/compiler/pic32-tools/bin/../lib/gcc/pic32mx/4.5.2/../../../../pic32mx/lib/libm.a(lib_a-sf_scalbn.o)
 .data          0x00000000        0x0 /home/gombe/workspace/machikania/origdev/pic32/compiler/pic32-tools/bin/../lib/gcc/pic32mx/4.5.2/../../../../pic32mx/lib/libm.a(lib_a-sf_scalbn.o)
 .bss           0x00000000        0x0 /home/gombe/workspace/machikania/origdev/pic32/compiler/pic32-tools/bin/../lib/gcc/pic32mx/4.5.2/../../../../pic32mx/lib/libm.a(lib_a-sf_scalbn.o)
 .reginfo       0x00000000       0x18 /home/gombe/workspace/machikania/origdev/pic32/compiler/pic32-tools/bin/../lib/gcc/pic32mx/4.5.2/../../../../pic32mx/lib/libm.a(lib_a-sf_scalbn.o)
 .text          0x00000000        0x0 /home/gombe/workspace/machikania/origdev/pic32/compiler/pic32-tools/bin/../lib/gcc/pic32mx/4.5.2/../../../../pic32mx/lib/libm.a(lib_a-s_scalbn.o)
 .data          0x00000000        0x0 /home/gombe/workspace/machikania/origdev/pic32/compiler/pic32-tools/bin/../lib/gcc/pic32mx/4.5.2/../../../../pic32mx/lib/libm.a(lib_a-s_scalbn.o)
 .bss           0x00000000        0x0 /home/gombe/workspace/machikania/origdev/pic32/compiler/pic32-tools/bin/../lib/gcc/pic32mx/4.5.2/../../../../pic32mx/lib/libm.a(lib_a-s_scalbn.o)
 .reginfo       0x00000000       0x18 /home/gombe/workspace/machikania/origdev/pic32/compiler/pic32-tools/bin/../lib/gcc/pic32mx/4.5.2/../../../../pic32mx/lib/libm.a(lib_a-s_scalbn.o)
 .text          0x00000000        0x0 /home/gombe/workspace/machikania/origdev/pic32/compiler/pic32-tools/bin/../lib/gcc/pic32mx/4.5.2/../../../../pic32mx/lib/libm.a(lib_a-s_copysign.o)
 .data          0x00000000        0x0 /home/gombe/workspace/machikania/origdev/pic32/compiler/pic32-tools/bin/../lib/gcc/pic32mx/4.5.2/../../../../pic32mx/lib/libm.a(lib_a-s_copysign.o)
 .bss           0x00000000        0x0 /home/gombe/workspace/machikania/origdev/pic32/compiler/pic32-tools/bin/../lib/gcc/pic32mx/4.5.2/../../../../pic32mx/lib/libm.a(lib_a-s_copysign.o)
 .reginfo       0x00000000       0x18 /home/gombe/workspace/machikania/origdev/pic32/compiler/pic32-tools/bin/../lib/gcc/pic32mx/4.5.2/../../../../pic32mx/lib/libm.a(lib_a-s_copysign.o)
 .text          0x00000000        0x0 /home/gombe/workspace/machikania/origdev/pic32/compiler/pic32-tools/bin/../lib/gcc/pic32mx/4.5.2/../../../../pic32mx/lib/libm.a(lib_a-sf_copysign.o)
 .data          0x00000000        0x0 /home/gombe/workspace/machikania/origdev/pic32/compiler/pic32-tools/bin/../lib/gcc/pic32mx/4.5.2/../../../../pic32mx/lib/libm.a(lib_a-sf_copysign.o)
 .bss           0x00000000        0x0 /home/gombe/workspace/machikania/origdev/pic32/compiler/pic32-tools/bin/../lib/gcc/pic32mx/4.5.2/../../../../pic32mx/lib/libm.a(lib_a-sf_copysign.o)
 .reginfo       0x00000000       0x18 /home/gombe/workspace/machikania/origdev/pic32/compiler/pic32-tools/bin/../lib/gcc/pic32mx/4.5.2/../../../../pic32mx/lib/libm.a(lib_a-sf_copysign.o)
 .text          0x00000000        0x0 /home/gombe/workspace/machikania/origdev/pic32/compiler/pic32-tools/bin/../lib/gcc/pic32mx/4.5.2/../../../../pic32mx/lib/./proc/32MX250F128B/default_isr_vectors.o
 .data          0x00000000        0x0 /home/gombe/workspace/machikania/origdev/pic32/compiler/pic32-tools/bin/../lib/gcc/pic32mx/4.5.2/../../../../pic32mx/lib/./proc/32MX250F128B/default_isr_vectors.o
 .bss           0x00000000        0x0 /home/gombe/workspace/machikania/origdev/pic32/compiler/pic32-tools/bin/../lib/gcc/pic32mx/4.5.2/../../../../pic32mx/lib/./proc/32MX250F128B/default_isr_vectors.o
 .reginfo       0x00000000       0x18 /home/gombe/workspace/machikania/origdev/pic32/compiler/pic32-tools/bin/../lib/gcc/pic32mx/4.5.2/../../../../pic32mx/lib/./proc/32MX250F128B/default_isr_vectors.o
 .discard       0x00000000      0x100 /home/gombe/workspace/machikania/origdev/pic32/compiler/pic32-tools/bin/../lib/gcc/pic32mx/4.5.2/../../../../pic32mx/lib/./proc/32MX250F128B/default_isr_vectors.o
 .text          0x00000000        0x0 /home/gombe/workspace/machikania/origdev/pic32/compiler/pic32-tools/bin/../lib/gcc/pic32mx/4.5.2/../../../../pic32mx/lib/./proc/32MX250F128B/processor.o
 .data          0x00000000        0x0 /home/gombe/workspace/machikania/origdev/pic32/compiler/pic32-tools/bin/../lib/gcc/pic32mx/4.5.2/../../../../pic32mx/lib/./proc/32MX250F128B/processor.o
 .bss           0x00000000        0x0 /home/gombe/workspace/machikania/origdev/pic32/compiler/pic32-tools/bin/../lib/gcc/pic32mx/4.5.2/../../../../pic32mx/lib/./proc/32MX250F128B/processor.o
 .reginfo       0x00000000       0x18 /home/gombe/workspace/machikania/origdev/pic32/compiler/pic32-tools/bin/../lib/gcc/pic32mx/4.5.2/../../../../pic32mx/lib/./proc/32MX250F128B/processor.o
 .data          0x00000000        0x0 /home/gombe/workspace/machikania/origdev/pic32/compiler/pic32-tools/bin/../lib/gcc/pic32mx/4.5.2/libgcc.a(_divdi3.o)
 .bss           0x00000000        0x0 /home/gombe/workspace/machikania/origdev/pic32/compiler/pic32-tools/bin/../lib/gcc/pic32mx/4.5.2/libgcc.a(_divdi3.o)
 .reginfo       0x00000000       0x18 /home/gombe/workspace/machikania/origdev/pic32/compiler/pic32-tools/bin/../lib/gcc/pic32mx/4.5.2/libgcc.a(_divdi3.o)
 .data          0x00000000        0x0 /home/gombe/workspace/machikania/origdev/pic32/compiler/pic32-tools/bin/../lib/gcc/pic32mx/4.5.2/libgcc.a(addsf3.o)
 .bss           0x00000000        0x0 /home/gombe/workspace/machikania/origdev/pic32/compiler/pic32-tools/bin/../lib/gcc/pic32mx/4.5.2/libgcc.a(addsf3.o)
 .reginfo       0x00000000       0x18 /home/gombe/workspace/machikania/origdev/pic32/compiler/pic32-tools/bin/../lib/gcc/pic32mx/4.5.2/libgcc.a(addsf3.o)
 .data          0x00000000        0x0 /home/gombe/workspace/machikania/origdev/pic32/compiler/pic32-tools/bin/../lib/gcc/pic32mx/4.5.2/libgcc.a(eqsf2.o)
 .bss           0x00000000        0x0 /home/gombe/workspace/machikania/origdev/pic32/compiler/pic32-tools/bin/../lib/gcc/pic32mx/4.5.2/libgcc.a(eqsf2.o)
 .reginfo       0x00000000       0x18 /home/gombe/workspace/machikania/origdev/pic32/compiler/pic32-tools/bin/../lib/gcc/pic32mx/4.5.2/libgcc.a(eqsf2.o)
 .data          0x00000000        0x0 /home/gombe/workspace/machikania/origdev/pic32/compiler/pic32-tools/bin/../lib/gcc/pic32mx/4.5.2/libgcc.a(gesf2.o)
 .bss           0x00000000        0x0 /home/gombe/workspace/machikania/origdev/pic32/compiler/pic32-tools/bin/../lib/gcc/pic32mx/4.5.2/libgcc.a(gesf2.o)
 .reginfo       0x00000000       0x18 /home/gombe/workspace/machikania/origdev/pic32/compiler/pic32-tools/bin/../lib/gcc/pic32mx/4.5.2/libgcc.a(gesf2.o)
 .data          0x00000000        0x0 /home/gombe/workspace/machikania/origdev/pic32/compiler/pic32-tools/bin/../lib/gcc/pic32mx/4.5.2/libgcc.a(mulsf3.o)
 .bss           0x00000000        0x0 /home/gombe/workspace/machikania/origdev/pic32/compiler/pic32-tools/bin/../lib/gcc/pic32mx/4.5.2/libgcc.a(mulsf3.o)
 .reginfo       0x00000000       0x18 /home/gombe/workspace/machikania/origdev/pic32/compiler/pic32-tools/bin/../lib/gcc/pic32mx/4.5.2/libgcc.a(mulsf3.o)
 .data          0x00000000        0x0 /home/gombe/workspace/machikania/origdev/pic32/compiler/pic32-tools/bin/../lib/gcc/pic32mx/4.5.2/libgcc.a(subsf3.o)
 .bss           0x00000000        0x0 /home/gombe/workspace/machikania/origdev/pic32/compiler/pic32-tools/bin/../lib/gcc/pic32mx/4.5.2/libgcc.a(subsf3.o)
 .reginfo       0x00000000       0x18 /home/gombe/workspace/machikania/origdev/pic32/compiler/pic32-tools/bin/../lib/gcc/pic32mx/4.5.2/libgcc.a(subsf3.o)
 .data          0x00000000        0x0 /home/gombe/workspace/machikania/origdev/pic32/compiler/pic32-tools/bin/../lib/gcc/pic32mx/4.5.2/libgcc.a(fixsfsi.o)
 .bss           0x00000000        0x0 /home/gombe/workspace/machikania/origdev/pic32/compiler/pic32-tools/bin/../lib/gcc/pic32mx/4.5.2/libgcc.a(fixsfsi.o)
 .reginfo       0x00000000       0x18 /home/gombe/workspace/machikania/origdev/pic32/compiler/pic32-tools/bin/../lib/gcc/pic32mx/4.5.2/libgcc.a(fixsfsi.o)
 .data          0x00000000        0x0 /home/gombe/workspace/machikania/origdev/pic32/compiler/pic32-tools/bin/../lib/gcc/pic32mx/4.5.2/libgcc.a(floatsisf.o)
 .bss           0x00000000        0x0 /home/gombe/workspace/machikania/origdev/pic32/compiler/pic32-tools/bin/../lib/gcc/pic32mx/4.5.2/libgcc.a(floatsisf.o)
 .reginfo       0x00000000       0x18 /home/gombe/workspace/machikania/origdev/pic32/compiler/pic32-tools/bin/../lib/gcc/pic32mx/4.5.2/libgcc.a(floatsisf.o)
 .data          0x00000000        0x0 /home/gombe/workspace/machikania/origdev/pic32/compiler/pic32-tools/bin/../lib/gcc/pic32mx/4.5.2/libgcc.a(floatunsisf.o)
 .bss           0x00000000        0x0 /home/gombe/workspace/machikania/origdev/pic32/compiler/pic32-tools/bin/../lib/gcc/pic32mx/4.5.2/libgcc.a(floatunsisf.o)
 .reginfo       0x00000000       0x18 /home/gombe/workspace/machikania/origdev/pic32/compiler/pic32-tools/bin/../lib/gcc/pic32mx/4.5.2/libgcc.a(floatunsisf.o)
 .data          0x00000000        0x0 /home/gombe/workspace/machikania/origdev/pic32/compiler/pic32-tools/bin/../lib/gcc/pic32mx/4.5.2/libgcc.a(adddf3.o)
 .bss           0x00000000        0x0 /home/gombe/workspace/machikania/origdev/pic32/compiler/pic32-tools/bin/../lib/gcc/pic32mx/4.5.2/libgcc.a(adddf3.o)
 .reginfo       0x00000000       0x18 /home/gombe/workspace/machikania/origdev/pic32/compiler/pic32-tools/bin/../lib/gcc/pic32mx/4.5.2/libgcc.a(adddf3.o)
 .data          0x00000000        0x0 /home/gombe/workspace/machikania/origdev/pic32/compiler/pic32-tools/bin/../lib/gcc/pic32mx/4.5.2/libgcc.a(divdf3.o)
 .bss           0x00000000        0x0 /home/gombe/workspace/machikania/origdev/pic32/compiler/pic32-tools/bin/../lib/gcc/pic32mx/4.5.2/libgcc.a(divdf3.o)
 .reginfo       0x00000000       0x18 /home/gombe/workspace/machikania/origdev/pic32/compiler/pic32-tools/bin/../lib/gcc/pic32mx/4.5.2/libgcc.a(divdf3.o)
 .data          0x00000000        0x0 /home/gombe/workspace/machikania/origdev/pic32/compiler/pic32-tools/bin/../lib/gcc/pic32mx/4.5.2/libgcc.a(eqdf2.o)
 .bss           0x00000000        0x0 /home/gombe/workspace/machikania/origdev/pic32/compiler/pic32-tools/bin/../lib/gcc/pic32mx/4.5.2/libgcc.a(eqdf2.o)
 .reginfo       0x00000000       0x18 /home/gombe/workspace/machikania/origdev/pic32/compiler/pic32-tools/bin/../lib/gcc/pic32mx/4.5.2/libgcc.a(eqdf2.o)
 .data          0x00000000        0x0 /home/gombe/workspace/machikania/origdev/pic32/compiler/pic32-tools/bin/../lib/gcc/pic32mx/4.5.2/libgcc.a(gedf2.o)
 .bss           0x00000000        0x0 /home/gombe/workspace/machikania/origdev/pic32/compiler/pic32-tools/bin/../lib/gcc/pic32mx/4.5.2/libgcc.a(gedf2.o)
 .reginfo       0x00000000       0x18 /home/gombe/workspace/machikania/origdev/pic32/compiler/pic32-tools/bin/../lib/gcc/pic32mx/4.5.2/libgcc.a(gedf2.o)
 .data          0x00000000        0x0 /home/gombe/workspace/machikania/origdev/pic32/compiler/pic32-tools/bin/../lib/gcc/pic32mx/4.5.2/libgcc.a(muldf3.o)
 .bss           0x00000000        0x0 /home/gombe/workspace/machikania/origdev/pic32/compiler/pic32-tools/bin/../lib/gcc/pic32mx/4.5.2/libgcc.a(muldf3.o)
 .reginfo       0x00000000       0x18 /home/gombe/workspace/machikania/origdev/pic32/compiler/pic32-tools/bin/../lib/gcc/pic32mx/4.5.2/libgcc.a(muldf3.o)
 .data          0x00000000        0x0 /home/gombe/workspace/machikania/origdev/pic32/compiler/pic32-tools/bin/../lib/gcc/pic32mx/4.5.2/libgcc.a(subdf3.o)
 .bss           0x00000000        0x0 /home/gombe/workspace/machikania/origdev/pic32/compiler/pic32-tools/bin/../lib/gcc/pic32mx/4.5.2/libgcc.a(subdf3.o)
 .reginfo       0x00000000       0x18 /home/gombe/workspace/machikania/origdev/pic32/compiler/pic32-tools/bin/../lib/gcc/pic32mx/4.5.2/libgcc.a(subdf3.o)
 .data          0x00000000        0x0 /home/gombe/workspace/machikania/origdev/pic32/compiler/pic32-tools/bin/../lib/gcc/pic32mx/4.5.2/libgcc.a(fixdfsi.o)
 .bss           0x00000000        0x0 /home/gombe/workspace/machikania/origdev/pic32/compiler/pic32-tools/bin/../lib/gcc/pic32mx/4.5.2/libgcc.a(fixdfsi.o)
 .reginfo       0x00000000       0x18 /home/gombe/workspace/machikania/origdev/pic32/compiler/pic32-tools/bin/../lib/gcc/pic32mx/4.5.2/libgcc.a(fixdfsi.o)
 .data          0x00000000        0x0 /home/gombe/workspace/machikania/origdev/pic32/compiler/pic32-tools/bin/../lib/gcc/pic32mx/4.5.2/libgcc.a(floatsidf.o)
 .bss           0x00000000        0x0 /home/gombe/workspace/machikania/origdev/pic32/compiler/pic32-tools/bin/../lib/gcc/pic32mx/4.5.2/libgcc.a(floatsidf.o)
 .reginfo       0x00000000       0x18 /home/gombe/workspace/machikania/origdev/pic32/compiler/pic32-tools/bin/../lib/gcc/pic32mx/4.5.2/libgcc.a(floatsidf.o)
 .data          0x00000000        0x0 /home/gombe/workspace/machikania/origdev/pic32/compiler/pic32-tools/bin/../lib/gcc/pic32mx/4.5.2/libgcc.a(floatunsidf.o)
 .bss           0x00000000        0x0 /home/gombe/workspace/machikania/origdev/pic32/compiler/pic32-tools/bin/../lib/gcc/pic32mx/4.5.2/libgcc.a(floatunsidf.o)
 .reginfo       0x00000000       0x18 /home/gombe/workspace/machikania/origdev/pic32/compiler/pic32-tools/bin/../lib/gcc/pic32mx/4.5.2/libgcc.a(floatunsidf.o)
 .data          0x00000000        0x0 /home/gombe/workspace/machikania/origdev/pic32/compiler/pic32-tools/bin/../lib/gcc/pic32mx/4.5.2/libgcc.a(extendsfdf2.o)
 .bss           0x00000000        0x0 /home/gombe/workspace/machikania/origdev/pic32/compiler/pic32-tools/bin/../lib/gcc/pic32mx/4.5.2/libgcc.a(extendsfdf2.o)
 .reginfo       0x00000000       0x18 /home/gombe/workspace/machikania/origdev/pic32/compiler/pic32-tools/bin/../lib/gcc/pic32mx/4.5.2/libgcc.a(extendsfdf2.o)
 .data          0x00000000        0x0 /home/gombe/workspace/machikania/origdev/pic32/compiler/pic32-tools/bin/../lib/gcc/pic32mx/4.5.2/libgcc.a(truncdfsf2.o)
 .bss           0x00000000        0x0 /home/gombe/workspace/machikania/origdev/pic32/compiler/pic32-tools/bin/../lib/gcc/pic32mx/4.5.2/libgcc.a(truncdfsf2.o)
 .reginfo       0x00000000       0x18 /home/gombe/workspace/machikania/origdev/pic32/compiler/pic32-tools/bin/../lib/gcc/pic32mx/4.5.2/libgcc.a(truncdfsf2.o)
 .text          0x00000000        0x0 /home/gombe/workspace/machikania/origdev/pic32/compiler/pic32-tools/bin/../lib/gcc/pic32mx/4.5.2/../../../../pic32mx/lib/libc.a(lib_a-assert.o)
 .data          0x00000000        0x0 /home/gombe/workspace/machikania/origdev/pic32/compiler/pic32-tools/bin/../lib/gcc/pic32mx/4.5.2/../../../../pic32mx/lib/libc.a(lib_a-assert.o)
 .bss           0x00000000        0x0 /home/gombe/workspace/machikania/origdev/pic32/compiler/pic32-tools/bin/../lib/gcc/pic32mx/4.5.2/../../../../pic32mx/lib/libc.a(lib_a-assert.o)
 .reginfo       0x00000000       0x18 /home/gombe/workspace/machikania/origdev/pic32/compiler/pic32-tools/bin/../lib/gcc/pic32mx/4.5.2/../../../../pic32mx/lib/libc.a(lib_a-assert.o)
 .text.__assert
                0x00000000       0x14 /home/gombe/workspace/machikania/origdev/pic32/compiler/pic32-tools/bin/../lib/gcc/pic32mx/4.5.2/../../../../pic32mx/lib/libc.a(lib_a-assert.o)
 .text          0x00000000        0x0 /home/gombe/workspace/machikania/origdev/pic32/compiler/pic32-tools/bin/../lib/gcc/pic32mx/4.5.2/../../../../pic32mx/lib/libc.a(lib_a-fiprintf.o)
 .data          0x00000000        0x0 /home/gombe/workspace/machikania/origdev/pic32/compiler/pic32-tools/bin/../lib/gcc/pic32mx/4.5.2/../../../../pic32mx/lib/libc.a(lib_a-fiprintf.o)
 .bss           0x00000000        0x0 /home/gombe/workspace/machikania/origdev/pic32/compiler/pic32-tools/bin/../lib/gcc/pic32mx/4.5.2/../../../../pic32mx/lib/libc.a(lib_a-fiprintf.o)
 .reginfo       0x00000000       0x18 /home/gombe/workspace/machikania/origdev/pic32/compiler/pic32-tools/bin/../lib/gcc/pic32mx/4.5.2/../../../../pic32mx/lib/libc.a(lib_a-fiprintf.o)
 .text._fiprintf_r
                0x00000000       0x24 /home/gombe/workspace/machikania/origdev/pic32/compiler/pic32-tools/bin/../lib/gcc/pic32mx/4.5.2/../../../../pic32mx/lib/libc.a(lib_a-fiprintf.o)
 .text          0x00000000        0x0 /home/gombe/workspace/machikania/origdev/pic32/compiler/pic32-tools/bin/../lib/gcc/pic32mx/4.5.2/../../../../pic32mx/lib/libc.a(lib_a-impure.o)
 .data          0x00000000        0x0 /home/gombe/workspace/machikania/origdev/pic32/compiler/pic32-tools/bin/../lib/gcc/pic32mx/4.5.2/../../../../pic32mx/lib/libc.a(lib_a-impure.o)
 .bss           0x00000000        0x0 /home/gombe/workspace/machikania/origdev/pic32/compiler/pic32-tools/bin/../lib/gcc/pic32mx/4.5.2/../../../../pic32mx/lib/libc.a(lib_a-impure.o)
 .reginfo       0x00000000       0x18 /home/gombe/workspace/machikania/origdev/pic32/compiler/pic32-tools/bin/../lib/gcc/pic32mx/4.5.2/../../../../pic32mx/lib/libc.a(lib_a-impure.o)
 .rodata._global_impure_ptr._global_impure_ptr
                0x00000000        0x4 /home/gombe/workspace/machikania/origdev/pic32/compiler/pic32-tools/bin/../lib/gcc/pic32mx/4.5.2/../../../../pic32mx/lib/libc.a(lib_a-impure.o)
 .text          0x00000000        0x0 /home/gombe/workspace/machikania/origdev/pic32/compiler/pic32-tools/bin/../lib/gcc/pic32mx/4.5.2/../../../../pic32mx/lib/libc.a(lib_a-printf.o)
 .data          0x00000000        0x0 /home/gombe/workspace/machikania/origdev/pic32/compiler/pic32-tools/bin/../lib/gcc/pic32mx/4.5.2/../../../../pic32mx/lib/libc.a(lib_a-printf.o)
 .bss           0x00000000        0x0 /home/gombe/workspace/machikania/origdev/pic32/compiler/pic32-tools/bin/../lib/gcc/pic32mx/4.5.2/../../../../pic32mx/lib/libc.a(lib_a-printf.o)
 .reginfo       0x00000000       0x18 /home/gombe/workspace/machikania/origdev/pic32/compiler/pic32-tools/bin/../lib/gcc/pic32mx/4.5.2/../../../../pic32mx/lib/libc.a(lib_a-printf.o)
 .text._printf_r
                0x00000000       0x30 /home/gombe/workspace/machikania/origdev/pic32/compiler/pic32-tools/bin/../lib/gcc/pic32mx/4.5.2/../../../../pic32mx/lib/libc.a(lib_a-printf.o)
 .text          0x00000000        0x0 /home/gombe/workspace/machikania/origdev/pic32/compiler/pic32-tools/bin/../lib/gcc/pic32mx/4.5.2/../../../../pic32mx/lib/libc.a(lib_a-vfiprintf.o)
 .data          0x00000000        0x0 /home/gombe/workspace/machikania/origdev/pic32/compiler/pic32-tools/bin/../lib/gcc/pic32mx/4.5.2/../../../../pic32mx/lib/libc.a(lib_a-vfiprintf.o)
 .bss           0x00000000        0x0 /home/gombe/workspace/machikania/origdev/pic32/compiler/pic32-tools/bin/../lib/gcc/pic32mx/4.5.2/../../../../pic32mx/lib/libc.a(lib_a-vfiprintf.o)
 .reginfo       0x00000000       0x18 /home/gombe/workspace/machikania/origdev/pic32/compiler/pic32-tools/bin/../lib/gcc/pic32mx/4.5.2/../../../../pic32mx/lib/libc.a(lib_a-vfiprintf.o)
 .text.vfiprintf
                0x00000000       0x1c /home/gombe/workspace/machikania/origdev/pic32/compiler/pic32-tools/bin/../lib/gcc/pic32mx/4.5.2/../../../../pic32mx/lib/libc.a(lib_a-vfiprintf.o)
 .text          0x00000000        0x0 /home/gombe/workspace/machikania/origdev/pic32/compiler/pic32-tools/bin/../lib/gcc/pic32mx/4.5.2/../../../../pic32mx/lib/libc.a(lib_a-vfprintf.o)
 .data          0x00000000        0x0 /home/gombe/workspace/machikania/origdev/pic32/compiler/pic32-tools/bin/../lib/gcc/pic32mx/4.5.2/../../../../pic32mx/lib/libc.a(lib_a-vfprintf.o)
 .bss           0x00000000        0x0 /home/gombe/workspace/machikania/origdev/pic32/compiler/pic32-tools/bin/../lib/gcc/pic32mx/4.5.2/../../../../pic32mx/lib/libc.a(lib_a-vfprintf.o)
 .reginfo       0x00000000       0x18 /home/gombe/workspace/machikania/origdev/pic32/compiler/pic32-tools/bin/../lib/gcc/pic32mx/4.5.2/../../../../pic32mx/lib/libc.a(lib_a-vfprintf.o)
 .text.vfprintf
                0x00000000       0x1c /home/gombe/workspace/machikania/origdev/pic32/compiler/pic32-tools/bin/../lib/gcc/pic32mx/4.5.2/../../../../pic32mx/lib/libc.a(lib_a-vfprintf.o)
 .text          0x00000000        0x0 /home/gombe/workspace/machikania/origdev/pic32/compiler/pic32-tools/bin/../lib/gcc/pic32mx/4.5.2/../../../../pic32mx/lib/libc.a(lib_a-wsetup.o)
 .data          0x00000000        0x0 /home/gombe/workspace/machikania/origdev/pic32/compiler/pic32-tools/bin/../lib/gcc/pic32mx/4.5.2/../../../../pic32mx/lib/libc.a(lib_a-wsetup.o)
 .bss           0x00000000        0x0 /home/gombe/workspace/machikania/origdev/pic32/compiler/pic32-tools/bin/../lib/gcc/pic32mx/4.5.2/../../../../pic32mx/lib/libc.a(lib_a-wsetup.o)
 .reginfo       0x00000000       0x18 /home/gombe/workspace/machikania/origdev/pic32/compiler/pic32-tools/bin/../lib/gcc/pic32mx/4.5.2/../../../../pic32mx/lib/libc.a(lib_a-wsetup.o)
 .text          0x00000000        0x0 /home/gombe/workspace/machikania/origdev/pic32/compiler/pic32-tools/bin/../lib/gcc/pic32mx/4.5.2/../../../../pic32mx/lib/libc.a(lib_a-abort.o)
 .data          0x00000000        0x0 /home/gombe/workspace/machikania/origdev/pic32/compiler/pic32-tools/bin/../lib/gcc/pic32mx/4.5.2/../../../../pic32mx/lib/libc.a(lib_a-abort.o)
 .bss           0x00000000        0x0 /home/gombe/workspace/machikania/origdev/pic32/compiler/pic32-tools/bin/../lib/gcc/pic32mx/4.5.2/../../../../pic32mx/lib/libc.a(lib_a-abort.o)
 .reginfo       0x00000000       0x18 /home/gombe/workspace/machikania/origdev/pic32/compiler/pic32-tools/bin/../lib/gcc/pic32mx/4.5.2/../../../../pic32mx/lib/libc.a(lib_a-abort.o)
 .text          0x00000000        0x0 /home/gombe/workspace/machikania/origdev/pic32/compiler/pic32-tools/bin/../lib/gcc/pic32mx/4.5.2/../../../../pic32mx/lib/libc.a(lib_a-dtoa.o)
 .data          0x00000000        0x0 /home/gombe/workspace/machikania/origdev/pic32/compiler/pic32-tools/bin/../lib/gcc/pic32mx/4.5.2/../../../../pic32mx/lib/libc.a(lib_a-dtoa.o)
 .bss           0x00000000        0x0 /home/gombe/workspace/machikania/origdev/pic32/compiler/pic32-tools/bin/../lib/gcc/pic32mx/4.5.2/../../../../pic32mx/lib/libc.a(lib_a-dtoa.o)
 .reginfo       0x00000000       0x18 /home/gombe/workspace/machikania/origdev/pic32/compiler/pic32-tools/bin/../lib/gcc/pic32mx/4.5.2/../../../../pic32mx/lib/libc.a(lib_a-dtoa.o)
 .text          0x00000000        0x0 /home/gombe/workspace/machikania/origdev/pic32/compiler/pic32-tools/bin/../lib/gcc/pic32mx/4.5.2/../../../../pic32mx/lib/libc.a(lib_a-fflush.o)
 .data          0x00000000        0x0 /home/gombe/workspace/machikania/origdev/pic32/compiler/pic32-tools/bin/../lib/gcc/pic32mx/4.5.2/../../../../pic32mx/lib/libc.a(lib_a-fflush.o)
 .bss           0x00000000        0x0 /home/gombe/workspace/machikania/origdev/pic32/compiler/pic32-tools/bin/../lib/gcc/pic32mx/4.5.2/../../../../pic32mx/lib/libc.a(lib_a-fflush.o)
 .reginfo       0x00000000       0x18 /home/gombe/workspace/machikania/origdev/pic32/compiler/pic32-tools/bin/../lib/gcc/pic32mx/4.5.2/../../../../pic32mx/lib/libc.a(lib_a-fflush.o)
 .text.fflush   0x00000000       0x24 /home/gombe/workspace/machikania/origdev/pic32/compiler/pic32-tools/bin/../lib/gcc/pic32mx/4.5.2/../../../../pic32mx/lib/libc.a(lib_a-fflush.o)
 .text          0x00000000        0x0 /home/gombe/workspace/machikania/origdev/pic32/compiler/pic32-tools/bin/../lib/gcc/pic32mx/4.5.2/../../../../pic32mx/lib/libc.a(lib_a-findfp.o)
 .data          0x00000000        0x0 /home/gombe/workspace/machikania/origdev/pic32/compiler/pic32-tools/bin/../lib/gcc/pic32mx/4.5.2/../../../../pic32mx/lib/libc.a(lib_a-findfp.o)
 .bss           0x00000000        0x0 /home/gombe/workspace/machikania/origdev/pic32/compiler/pic32-tools/bin/../lib/gcc/pic32mx/4.5.2/../../../../pic32mx/lib/libc.a(lib_a-findfp.o)
 .reginfo       0x00000000       0x18 /home/gombe/workspace/machikania/origdev/pic32/compiler/pic32-tools/bin/../lib/gcc/pic32mx/4.5.2/../../../../pic32mx/lib/libc.a(lib_a-findfp.o)
 .text.__sfmoreglue
                0x00000000       0x64 /home/gombe/workspace/machikania/origdev/pic32/compiler/pic32-tools/bin/../lib/gcc/pic32mx/4.5.2/../../../../pic32mx/lib/libc.a(lib_a-findfp.o)
 .text._cleanup
                0x00000000        0xc /home/gombe/workspace/machikania/origdev/pic32/compiler/pic32-tools/bin/../lib/gcc/pic32mx/4.5.2/../../../../pic32mx/lib/libc.a(lib_a-findfp.o)
 .text.__sfp    0x00000000       0xf4 /home/gombe/workspace/machikania/origdev/pic32/compiler/pic32-tools/bin/../lib/gcc/pic32mx/4.5.2/../../../../pic32mx/lib/libc.a(lib_a-findfp.o)
 .text          0x00000000        0x0 /home/gombe/workspace/machikania/origdev/pic32/compiler/pic32-tools/bin/../lib/gcc/pic32mx/4.5.2/../../../../pic32mx/lib/libc.a(lib_a-fputwc.o)
 .data          0x00000000        0x0 /home/gombe/workspace/machikania/origdev/pic32/compiler/pic32-tools/bin/../lib/gcc/pic32mx/4.5.2/../../../../pic32mx/lib/libc.a(lib_a-fputwc.o)
 .bss           0x00000000        0x0 /home/gombe/workspace/machikania/origdev/pic32/compiler/pic32-tools/bin/../lib/gcc/pic32mx/4.5.2/../../../../pic32mx/lib/libc.a(lib_a-fputwc.o)
 .reginfo       0x00000000       0x18 /home/gombe/workspace/machikania/origdev/pic32/compiler/pic32-tools/bin/../lib/gcc/pic32mx/4.5.2/../../../../pic32mx/lib/libc.a(lib_a-fputwc.o)
 .text.fputwc   0x00000000       0x48 /home/gombe/workspace/machikania/origdev/pic32/compiler/pic32-tools/bin/../lib/gcc/pic32mx/4.5.2/../../../../pic32mx/lib/libc.a(lib_a-fputwc.o)
 .text          0x00000000        0x0 /home/gombe/workspace/machikania/origdev/pic32/compiler/pic32-tools/bin/../lib/gcc/pic32mx/4.5.2/../../../../pic32mx/lib/libc.a(lib_a-freer.o)
 .data          0x00000000        0x0 /home/gombe/workspace/machikania/origdev/pic32/compiler/pic32-tools/bin/../lib/gcc/pic32mx/4.5.2/../../../../pic32mx/lib/libc.a(lib_a-freer.o)
 .bss           0x00000000        0x0 /home/gombe/workspace/machikania/origdev/pic32/compiler/pic32-tools/bin/../lib/gcc/pic32mx/4.5.2/../../../../pic32mx/lib/libc.a(lib_a-freer.o)
 .reginfo       0x00000000       0x18 /home/gombe/workspace/machikania/origdev/pic32/compiler/pic32-tools/bin/../lib/gcc/pic32mx/4.5.2/../../../../pic32mx/lib/libc.a(lib_a-freer.o)
 .text          0x00000000        0x0 /home/gombe/workspace/machikania/origdev/pic32/compiler/pic32-tools/bin/../lib/gcc/pic32mx/4.5.2/../../../../pic32mx/lib/libc.a(lib_a-fvwrite.o)
 .data          0x00000000        0x0 /home/gombe/workspace/machikania/origdev/pic32/compiler/pic32-tools/bin/../lib/gcc/pic32mx/4.5.2/../../../../pic32mx/lib/libc.a(lib_a-fvwrite.o)
 .bss           0x00000000        0x0 /home/gombe/workspace/machikania/origdev/pic32/compiler/pic32-tools/bin/../lib/gcc/pic32mx/4.5.2/../../../../pic32mx/lib/libc.a(lib_a-fvwrite.o)
 .reginfo       0x00000000       0x18 /home/gombe/workspace/machikania/origdev/pic32/compiler/pic32-tools/bin/../lib/gcc/pic32mx/4.5.2/../../../../pic32mx/lib/libc.a(lib_a-fvwrite.o)
 .text          0x00000000        0x0 /home/gombe/workspace/machikania/origdev/pic32/compiler/pic32-tools/bin/../lib/gcc/pic32mx/4.5.2/../../../../pic32mx/lib/libc.a(lib_a-fwalk.o)
 .data          0x00000000        0x0 /home/gombe/workspace/machikania/origdev/pic32/compiler/pic32-tools/bin/../lib/gcc/pic32mx/4.5.2/../../../../pic32mx/lib/libc.a(lib_a-fwalk.o)
 .bss           0x00000000        0x0 /home/gombe/workspace/machikania/origdev/pic32/compiler/pic32-tools/bin/../lib/gcc/pic32mx/4.5.2/../../../../pic32mx/lib/libc.a(lib_a-fwalk.o)
 .reginfo       0x00000000       0x18 /home/gombe/workspace/machikania/origdev/pic32/compiler/pic32-tools/bin/../lib/gcc/pic32mx/4.5.2/../../../../pic32mx/lib/libc.a(lib_a-fwalk.o)
 .text._fwalk_reent
                0x00000000       0xac /home/gombe/workspace/machikania/origdev/pic32/compiler/pic32-tools/bin/../lib/gcc/pic32mx/4.5.2/../../../../pic32mx/lib/libc.a(lib_a-fwalk.o)
 .text          0x00000000        0x0 /home/gombe/workspace/machikania/origdev/pic32/compiler/pic32-tools/bin/../lib/gcc/pic32mx/4.5.2/../../../../pic32mx/lib/libc.a(lib_a-locale.o)
 .data          0x00000000        0x0 /home/gombe/workspace/machikania/origdev/pic32/compiler/pic32-tools/bin/../lib/gcc/pic32mx/4.5.2/../../../../pic32mx/lib/libc.a(lib_a-locale.o)
 .bss           0x00000000        0x0 /home/gombe/workspace/machikania/origdev/pic32/compiler/pic32-tools/bin/../lib/gcc/pic32mx/4.5.2/../../../../pic32mx/lib/libc.a(lib_a-locale.o)
 .reginfo       0x00000000       0x18 /home/gombe/workspace/machikania/origdev/pic32/compiler/pic32-tools/bin/../lib/gcc/pic32mx/4.5.2/../../../../pic32mx/lib/libc.a(lib_a-locale.o)
 .text._setlocale_r
                0x00000000       0x78 /home/gombe/workspace/machikania/origdev/pic32/compiler/pic32-tools/bin/../lib/gcc/pic32mx/4.5.2/../../../../pic32mx/lib/libc.a(lib_a-locale.o)
 .text.__locale_msgcharset
                0x00000000        0xc /home/gombe/workspace/machikania/origdev/pic32/compiler/pic32-tools/bin/../lib/gcc/pic32mx/4.5.2/../../../../pic32mx/lib/libc.a(lib_a-locale.o)
 .text.__locale_cjk_lang
                0x00000000        0x8 /home/gombe/workspace/machikania/origdev/pic32/compiler/pic32-tools/bin/../lib/gcc/pic32mx/4.5.2/../../../../pic32mx/lib/libc.a(lib_a-locale.o)
 .text.setlocale
                0x00000000       0x14 /home/gombe/workspace/machikania/origdev/pic32/compiler/pic32-tools/bin/../lib/gcc/pic32mx/4.5.2/../../../../pic32mx/lib/libc.a(lib_a-locale.o)
 .text.localeconv
                0x00000000        0xc /home/gombe/workspace/machikania/origdev/pic32/compiler/pic32-tools/bin/../lib/gcc/pic32mx/4.5.2/../../../../pic32mx/lib/libc.a(lib_a-locale.o)
 .data.lc_message_charset.lc_message_charset
                0x00000000       0x20 /home/gombe/workspace/machikania/origdev/pic32/compiler/pic32-tools/bin/../lib/gcc/pic32mx/4.5.2/../../../../pic32mx/lib/libc.a(lib_a-locale.o)
 .text          0x00000000        0x0 /home/gombe/workspace/machikania/origdev/pic32/compiler/pic32-tools/bin/../lib/gcc/pic32mx/4.5.2/../../../../pic32mx/lib/libc.a(lib_a-makebuf.o)
 .data          0x00000000        0x0 /home/gombe/workspace/machikania/origdev/pic32/compiler/pic32-tools/bin/../lib/gcc/pic32mx/4.5.2/../../../../pic32mx/lib/libc.a(lib_a-makebuf.o)
 .bss           0x00000000        0x0 /home/gombe/workspace/machikania/origdev/pic32/compiler/pic32-tools/bin/../lib/gcc/pic32mx/4.5.2/../../../../pic32mx/lib/libc.a(lib_a-makebuf.o)
 .reginfo       0x00000000       0x18 /home/gombe/workspace/machikania/origdev/pic32/compiler/pic32-tools/bin/../lib/gcc/pic32mx/4.5.2/../../../../pic32mx/lib/libc.a(lib_a-makebuf.o)
 .text          0x00000000        0x0 /home/gombe/workspace/machikania/origdev/pic32/compiler/pic32-tools/bin/../lib/gcc/pic32mx/4.5.2/../../../../pic32mx/lib/libc.a(lib_a-mallocr.o)
 .data          0x00000000        0x0 /home/gombe/workspace/machikania/origdev/pic32/compiler/pic32-tools/bin/../lib/gcc/pic32mx/4.5.2/../../../../pic32mx/lib/libc.a(lib_a-mallocr.o)
 .bss           0x00000000        0x0 /home/gombe/workspace/machikania/origdev/pic32/compiler/pic32-tools/bin/../lib/gcc/pic32mx/4.5.2/../../../../pic32mx/lib/libc.a(lib_a-mallocr.o)
 .reginfo       0x00000000       0x18 /home/gombe/workspace/machikania/origdev/pic32/compiler/pic32-tools/bin/../lib/gcc/pic32mx/4.5.2/../../../../pic32mx/lib/libc.a(lib_a-mallocr.o)
 .text          0x00000000        0x0 /home/gombe/workspace/machikania/origdev/pic32/compiler/pic32-tools/bin/../lib/gcc/pic32mx/4.5.2/../../../../pic32mx/lib/libc.a(lib_a-memchr.o)
 .data          0x00000000        0x0 /home/gombe/workspace/machikania/origdev/pic32/compiler/pic32-tools/bin/../lib/gcc/pic32mx/4.5.2/../../../../pic32mx/lib/libc.a(lib_a-memchr.o)
 .bss           0x00000000        0x0 /home/gombe/workspace/machikania/origdev/pic32/compiler/pic32-tools/bin/../lib/gcc/pic32mx/4.5.2/../../../../pic32mx/lib/libc.a(lib_a-memchr.o)
 .reginfo       0x00000000       0x18 /home/gombe/workspace/machikania/origdev/pic32/compiler/pic32-tools/bin/../lib/gcc/pic32mx/4.5.2/../../../../pic32mx/lib/libc.a(lib_a-memchr.o)
 .text          0x00000000        0x0 /home/gombe/workspace/machikania/origdev/pic32/compiler/pic32-tools/bin/../lib/gcc/pic32mx/4.5.2/../../../../pic32mx/lib/libc.a(lib_a-memcpy.o)
 .data          0x00000000        0x0 /home/gombe/workspace/machikania/origdev/pic32/compiler/pic32-tools/bin/../lib/gcc/pic32mx/4.5.2/../../../../pic32mx/lib/libc.a(lib_a-memcpy.o)
 .bss           0x00000000        0x0 /home/gombe/workspace/machikania/origdev/pic32/compiler/pic32-tools/bin/../lib/gcc/pic32mx/4.5.2/../../../../pic32mx/lib/libc.a(lib_a-memcpy.o)
 .reginfo       0x00000000       0x18 /home/gombe/workspace/machikania/origdev/pic32/compiler/pic32-tools/bin/../lib/gcc/pic32mx/4.5.2/../../../../pic32mx/lib/libc.a(lib_a-memcpy.o)
 .text          0x00000000        0x0 /home/gombe/workspace/machikania/origdev/pic32/compiler/pic32-tools/bin/../lib/gcc/pic32mx/4.5.2/../../../../pic32mx/lib/libc.a(lib_a-memmove.o)
 .data          0x00000000        0x0 /home/gombe/workspace/machikania/origdev/pic32/compiler/pic32-tools/bin/../lib/gcc/pic32mx/4.5.2/../../../../pic32mx/lib/libc.a(lib_a-memmove.o)
 .bss           0x00000000        0x0 /home/gombe/workspace/machikania/origdev/pic32/compiler/pic32-tools/bin/../lib/gcc/pic32mx/4.5.2/../../../../pic32mx/lib/libc.a(lib_a-memmove.o)
 .reginfo       0x00000000       0x18 /home/gombe/workspace/machikania/origdev/pic32/compiler/pic32-tools/bin/../lib/gcc/pic32mx/4.5.2/../../../../pic32mx/lib/libc.a(lib_a-memmove.o)
 .text          0x00000000        0x0 /home/gombe/workspace/machikania/origdev/pic32/compiler/pic32-tools/bin/../lib/gcc/pic32mx/4.5.2/../../../../pic32mx/lib/libc.a(lib_a-memset.o)
 .data          0x00000000        0x0 /home/gombe/workspace/machikania/origdev/pic32/compiler/pic32-tools/bin/../lib/gcc/pic32mx/4.5.2/../../../../pic32mx/lib/libc.a(lib_a-memset.o)
 .bss           0x00000000        0x0 /home/gombe/workspace/machikania/origdev/pic32/compiler/pic32-tools/bin/../lib/gcc/pic32mx/4.5.2/../../../../pic32mx/lib/libc.a(lib_a-memset.o)
 .reginfo       0x00000000       0x18 /home/gombe/workspace/machikania/origdev/pic32/compiler/pic32-tools/bin/../lib/gcc/pic32mx/4.5.2/../../../../pic32mx/lib/libc.a(lib_a-memset.o)
 .text          0x00000000        0x0 /home/gombe/workspace/machikania/origdev/pic32/compiler/pic32-tools/bin/../lib/gcc/pic32mx/4.5.2/../../../../pic32mx/lib/libc.a(lib_a-mlock.o)
 .data          0x00000000        0x0 /home/gombe/workspace/machikania/origdev/pic32/compiler/pic32-tools/bin/../lib/gcc/pic32mx/4.5.2/../../../../pic32mx/lib/libc.a(lib_a-mlock.o)
 .bss           0x00000000        0x0 /home/gombe/workspace/machikania/origdev/pic32/compiler/pic32-tools/bin/../lib/gcc/pic32mx/4.5.2/../../../../pic32mx/lib/libc.a(lib_a-mlock.o)
 .reginfo       0x00000000       0x18 /home/gombe/workspace/machikania/origdev/pic32/compiler/pic32-tools/bin/../lib/gcc/pic32mx/4.5.2/../../../../pic32mx/lib/libc.a(lib_a-mlock.o)
 .text          0x00000000        0x0 /home/gombe/workspace/machikania/origdev/pic32/compiler/pic32-tools/bin/../lib/gcc/pic32mx/4.5.2/../../../../pic32mx/lib/libc.a(lib_a-mprec.o)
 .data          0x00000000        0x0 /home/gombe/workspace/machikania/origdev/pic32/compiler/pic32-tools/bin/../lib/gcc/pic32mx/4.5.2/../../../../pic32mx/lib/libc.a(lib_a-mprec.o)
 .bss           0x00000000        0x0 /home/gombe/workspace/machikania/origdev/pic32/compiler/pic32-tools/bin/../lib/gcc/pic32mx/4.5.2/../../../../pic32mx/lib/libc.a(lib_a-mprec.o)
 .reginfo       0x00000000       0x18 /home/gombe/workspace/machikania/origdev/pic32/compiler/pic32-tools/bin/../lib/gcc/pic32mx/4.5.2/../../../../pic32mx/lib/libc.a(lib_a-mprec.o)
 .text.__s2b    0x00000000      0x114 /home/gombe/workspace/machikania/origdev/pic32/compiler/pic32-tools/bin/../lib/gcc/pic32mx/4.5.2/../../../../pic32mx/lib/libc.a(lib_a-mprec.o)
 .text.__ulp    0x00000000       0x64 /home/gombe/workspace/machikania/origdev/pic32/compiler/pic32-tools/bin/../lib/gcc/pic32mx/4.5.2/../../../../pic32mx/lib/libc.a(lib_a-mprec.o)
 .text.__b2d    0x00000000      0x110 /home/gombe/workspace/machikania/origdev/pic32/compiler/pic32-tools/bin/../lib/gcc/pic32mx/4.5.2/../../../../pic32mx/lib/libc.a(lib_a-mprec.o)
 .text.__ratio  0x00000000       0xa0 /home/gombe/workspace/machikania/origdev/pic32/compiler/pic32-tools/bin/../lib/gcc/pic32mx/4.5.2/../../../../pic32mx/lib/libc.a(lib_a-mprec.o)
 .text._mprec_log10
                0x00000000       0x8c /home/gombe/workspace/machikania/origdev/pic32/compiler/pic32-tools/bin/../lib/gcc/pic32mx/4.5.2/../../../../pic32mx/lib/libc.a(lib_a-mprec.o)
 .text.__copybits
                0x00000000       0x68 /home/gombe/workspace/machikania/origdev/pic32/compiler/pic32-tools/bin/../lib/gcc/pic32mx/4.5.2/../../../../pic32mx/lib/libc.a(lib_a-mprec.o)
 .text.__any_on
                0x00000000       0x90 /home/gombe/workspace/machikania/origdev/pic32/compiler/pic32-tools/bin/../lib/gcc/pic32mx/4.5.2/../../../../pic32mx/lib/libc.a(lib_a-mprec.o)
 .rodata.__mprec_tinytens.__mprec_tinytens
                0x00000000       0x28 /home/gombe/workspace/machikania/origdev/pic32/compiler/pic32-tools/bin/../lib/gcc/pic32mx/4.5.2/../../../../pic32mx/lib/libc.a(lib_a-mprec.o)
 .rodata        0x00000000       0x10 /home/gombe/workspace/machikania/origdev/pic32/compiler/pic32-tools/bin/../lib/gcc/pic32mx/4.5.2/../../../../pic32mx/lib/libc.a(lib_a-mprec.o)
 .text          0x00000000        0x0 /home/gombe/workspace/machikania/origdev/pic32/compiler/pic32-tools/bin/../lib/gcc/pic32mx/4.5.2/../../../../pic32mx/lib/libc.a(lib_a-reallocr.o)
 .data          0x00000000        0x0 /home/gombe/workspace/machikania/origdev/pic32/compiler/pic32-tools/bin/../lib/gcc/pic32mx/4.5.2/../../../../pic32mx/lib/libc.a(lib_a-reallocr.o)
 .bss           0x00000000        0x0 /home/gombe/workspace/machikania/origdev/pic32/compiler/pic32-tools/bin/../lib/gcc/pic32mx/4.5.2/../../../../pic32mx/lib/libc.a(lib_a-reallocr.o)
 .reginfo       0x00000000       0x18 /home/gombe/workspace/machikania/origdev/pic32/compiler/pic32-tools/bin/../lib/gcc/pic32mx/4.5.2/../../../../pic32mx/lib/libc.a(lib_a-reallocr.o)
 .text          0x00000000        0x0 /home/gombe/workspace/machikania/origdev/pic32/compiler/pic32-tools/bin/../lib/gcc/pic32mx/4.5.2/../../../../pic32mx/lib/libc.a(lib_a-sbrkr.o)
 .data          0x00000000        0x0 /home/gombe/workspace/machikania/origdev/pic32/compiler/pic32-tools/bin/../lib/gcc/pic32mx/4.5.2/../../../../pic32mx/lib/libc.a(lib_a-sbrkr.o)
 .bss           0x00000000        0x0 /home/gombe/workspace/machikania/origdev/pic32/compiler/pic32-tools/bin/../lib/gcc/pic32mx/4.5.2/../../../../pic32mx/lib/libc.a(lib_a-sbrkr.o)
 .reginfo       0x00000000       0x18 /home/gombe/workspace/machikania/origdev/pic32/compiler/pic32-tools/bin/../lib/gcc/pic32mx/4.5.2/../../../../pic32mx/lib/libc.a(lib_a-sbrkr.o)
 .text          0x00000000        0x0 /home/gombe/workspace/machikania/origdev/pic32/compiler/pic32-tools/bin/../lib/gcc/pic32mx/4.5.2/../../../../pic32mx/lib/libc.a(lib_a-s_fpclassify.o)
 .data          0x00000000        0x0 /home/gombe/workspace/machikania/origdev/pic32/compiler/pic32-tools/bin/../lib/gcc/pic32mx/4.5.2/../../../../pic32mx/lib/libc.a(lib_a-s_fpclassify.o)
 .bss           0x00000000        0x0 /home/gombe/workspace/machikania/origdev/pic32/compiler/pic32-tools/bin/../lib/gcc/pic32mx/4.5.2/../../../../pic32mx/lib/libc.a(lib_a-s_fpclassify.o)
 .reginfo       0x00000000       0x18 /home/gombe/workspace/machikania/origdev/pic32/compiler/pic32-tools/bin/../lib/gcc/pic32mx/4.5.2/../../../../pic32mx/lib/libc.a(lib_a-s_fpclassify.o)
 .text          0x00000000        0x0 /home/gombe/workspace/machikania/origdev/pic32/compiler/pic32-tools/bin/../lib/gcc/pic32mx/4.5.2/../../../../pic32mx/lib/libc.a(lib_a-signal.o)
 .data          0x00000000        0x0 /home/gombe/workspace/machikania/origdev/pic32/compiler/pic32-tools/bin/../lib/gcc/pic32mx/4.5.2/../../../../pic32mx/lib/libc.a(lib_a-signal.o)
 .bss           0x00000000        0x0 /home/gombe/workspace/machikania/origdev/pic32/compiler/pic32-tools/bin/../lib/gcc/pic32mx/4.5.2/../../../../pic32mx/lib/libc.a(lib_a-signal.o)
 .reginfo       0x00000000       0x18 /home/gombe/workspace/machikania/origdev/pic32/compiler/pic32-tools/bin/../lib/gcc/pic32mx/4.5.2/../../../../pic32mx/lib/libc.a(lib_a-signal.o)
 .text._init_signal_r
                0x00000000       0x5c /home/gombe/workspace/machikania/origdev/pic32/compiler/pic32-tools/bin/../lib/gcc/pic32mx/4.5.2/../../../../pic32mx/lib/libc.a(lib_a-signal.o)
 .text._signal_r
                0x00000000       0x78 /home/gombe/workspace/machikania/origdev/pic32/compiler/pic32-tools/bin/../lib/gcc/pic32mx/4.5.2/../../../../pic32mx/lib/libc.a(lib_a-signal.o)
 .text.__sigtramp_r
                0x00000000       0x94 /home/gombe/workspace/machikania/origdev/pic32/compiler/pic32-tools/bin/../lib/gcc/pic32mx/4.5.2/../../../../pic32mx/lib/libc.a(lib_a-signal.o)
 .text.signal   0x00000000       0x14 /home/gombe/workspace/machikania/origdev/pic32/compiler/pic32-tools/bin/../lib/gcc/pic32mx/4.5.2/../../../../pic32mx/lib/libc.a(lib_a-signal.o)
 .text._init_signal
                0x00000000        0x8 /home/gombe/workspace/machikania/origdev/pic32/compiler/pic32-tools/bin/../lib/gcc/pic32mx/4.5.2/../../../../pic32mx/lib/libc.a(lib_a-signal.o)
 .text.__sigtramp
                0x00000000        0xc /home/gombe/workspace/machikania/origdev/pic32/compiler/pic32-tools/bin/../lib/gcc/pic32mx/4.5.2/../../../../pic32mx/lib/libc.a(lib_a-signal.o)
 .text          0x00000000        0x0 /home/gombe/workspace/machikania/origdev/pic32/compiler/pic32-tools/bin/../lib/gcc/pic32mx/4.5.2/../../../../pic32mx/lib/libc.a(lib_a-signalr.o)
 .data          0x00000000        0x0 /home/gombe/workspace/machikania/origdev/pic32/compiler/pic32-tools/bin/../lib/gcc/pic32mx/4.5.2/../../../../pic32mx/lib/libc.a(lib_a-signalr.o)
 .bss           0x00000000        0x0 /home/gombe/workspace/machikania/origdev/pic32/compiler/pic32-tools/bin/../lib/gcc/pic32mx/4.5.2/../../../../pic32mx/lib/libc.a(lib_a-signalr.o)
 .reginfo       0x00000000       0x18 /home/gombe/workspace/machikania/origdev/pic32/compiler/pic32-tools/bin/../lib/gcc/pic32mx/4.5.2/../../../../pic32mx/lib/libc.a(lib_a-signalr.o)
 .text          0x00000000        0x0 /home/gombe/workspace/machikania/origdev/pic32/compiler/pic32-tools/bin/../lib/gcc/pic32mx/4.5.2/../../../../pic32mx/lib/libc.a(lib_a-stdio.o)
 .data          0x00000000        0x0 /home/gombe/workspace/machikania/origdev/pic32/compiler/pic32-tools/bin/../lib/gcc/pic32mx/4.5.2/../../../../pic32mx/lib/libc.a(lib_a-stdio.o)
 .bss           0x00000000        0x0 /home/gombe/workspace/machikania/origdev/pic32/compiler/pic32-tools/bin/../lib/gcc/pic32mx/4.5.2/../../../../pic32mx/lib/libc.a(lib_a-stdio.o)
 .reginfo       0x00000000       0x18 /home/gombe/workspace/machikania/origdev/pic32/compiler/pic32-tools/bin/../lib/gcc/pic32mx/4.5.2/../../../../pic32mx/lib/libc.a(lib_a-stdio.o)
 .text.__seofread
                0x00000000        0x8 /home/gombe/workspace/machikania/origdev/pic32/compiler/pic32-tools/bin/../lib/gcc/pic32mx/4.5.2/../../../../pic32mx/lib/libc.a(lib_a-stdio.o)
 .text          0x00000000        0x0 /home/gombe/workspace/machikania/origdev/pic32/compiler/pic32-tools/bin/../lib/gcc/pic32mx/4.5.2/../../../../pic32mx/lib/libc.a(lib_a-strcmp.o)
 .data          0x00000000        0x0 /home/gombe/workspace/machikania/origdev/pic32/compiler/pic32-tools/bin/../lib/gcc/pic32mx/4.5.2/../../../../pic32mx/lib/libc.a(lib_a-strcmp.o)
 .bss           0x00000000        0x0 /home/gombe/workspace/machikania/origdev/pic32/compiler/pic32-tools/bin/../lib/gcc/pic32mx/4.5.2/../../../../pic32mx/lib/libc.a(lib_a-strcmp.o)
 .reginfo       0x00000000       0x18 /home/gombe/workspace/machikania/origdev/pic32/compiler/pic32-tools/bin/../lib/gcc/pic32mx/4.5.2/../../../../pic32mx/lib/libc.a(lib_a-strcmp.o)
 .text.strcmp   0x00000000       0x64 /home/gombe/workspace/machikania/origdev/pic32/compiler/pic32-tools/bin/../lib/gcc/pic32mx/4.5.2/../../../../pic32mx/lib/libc.a(lib_a-strcmp.o)
 .data          0x00000000        0x0 /home/gombe/workspace/machikania/origdev/pic32/compiler/pic32-tools/bin/../lib/gcc/pic32mx/4.5.2/../../../../pic32mx/lib/libc.a(lib_a-strlen.o)
 .bss           0x00000000        0x0 /home/gombe/workspace/machikania/origdev/pic32/compiler/pic32-tools/bin/../lib/gcc/pic32mx/4.5.2/../../../../pic32mx/lib/libc.a(lib_a-strlen.o)
 .reginfo       0x00000000       0x18 /home/gombe/workspace/machikania/origdev/pic32/compiler/pic32-tools/bin/../lib/gcc/pic32mx/4.5.2/../../../../pic32mx/lib/libc.a(lib_a-strlen.o)
 .text          0x00000000        0x0 /home/gombe/workspace/machikania/origdev/pic32/compiler/pic32-tools/bin/../lib/gcc/pic32mx/4.5.2/../../../../pic32mx/lib/libc.a(lib_a-wbuf.o)
 .data          0x00000000        0x0 /home/gombe/workspace/machikania/origdev/pic32/compiler/pic32-tools/bin/../lib/gcc/pic32mx/4.5.2/../../../../pic32mx/lib/libc.a(lib_a-wbuf.o)
 .bss           0x00000000        0x0 /home/gombe/workspace/machikania/origdev/pic32/compiler/pic32-tools/bin/../lib/gcc/pic32mx/4.5.2/../../../../pic32mx/lib/libc.a(lib_a-wbuf.o)
 .reginfo       0x00000000       0x18 /home/gombe/workspace/machikania/origdev/pic32/compiler/pic32-tools/bin/../lib/gcc/pic32mx/4.5.2/../../../../pic32mx/lib/libc.a(lib_a-wbuf.o)
 .text.__swbuf  0x00000000       0x14 /home/gombe/workspace/machikania/origdev/pic32/compiler/pic32-tools/bin/../lib/gcc/pic32mx/4.5.2/../../../../pic32mx/lib/libc.a(lib_a-wbuf.o)
 .text          0x00000000        0x0 /home/gombe/workspace/machikania/origdev/pic32/compiler/pic32-tools/bin/../lib/gcc/pic32mx/4.5.2/../../../../pic32mx/lib/libc.a(lib_a-wcrtomb.o)
 .data          0x00000000        0x0 /home/gombe/workspace/machikania/origdev/pic32/compiler/pic32-tools/bin/../lib/gcc/pic32mx/4.5.2/../../../../pic32mx/lib/libc.a(lib_a-wcrtomb.o)
 .bss           0x00000000        0x0 /home/gombe/workspace/machikania/origdev/pic32/compiler/pic32-tools/bin/../lib/gcc/pic32mx/4.5.2/../../../../pic32mx/lib/libc.a(lib_a-wcrtomb.o)
 .reginfo       0x00000000       0x18 /home/gombe/workspace/machikania/origdev/pic32/compiler/pic32-tools/bin/../lib/gcc/pic32mx/4.5.2/../../../../pic32mx/lib/libc.a(lib_a-wcrtomb.o)
 .text.wcrtomb  0x00000000       0x18 /home/gombe/workspace/machikania/origdev/pic32/compiler/pic32-tools/bin/../lib/gcc/pic32mx/4.5.2/../../../../pic32mx/lib/libc.a(lib_a-wcrtomb.o)
 .text          0x00000000        0x0 /home/gombe/workspace/machikania/origdev/pic32/compiler/pic32-tools/bin/../lib/gcc/pic32mx/4.5.2/../../../../pic32mx/lib/libc.a(lib_a-wctomb_r.o)
 .data          0x00000000        0x0 /home/gombe/workspace/machikania/origdev/pic32/compiler/pic32-tools/bin/../lib/gcc/pic32mx/4.5.2/../../../../pic32mx/lib/libc.a(lib_a-wctomb_r.o)
 .bss           0x00000000        0x0 /home/gombe/workspace/machikania/origdev/pic32/compiler/pic32-tools/bin/../lib/gcc/pic32mx/4.5.2/../../../../pic32mx/lib/libc.a(lib_a-wctomb_r.o)
 .reginfo       0x00000000       0x18 /home/gombe/workspace/machikania/origdev/pic32/compiler/pic32-tools/bin/../lib/gcc/pic32mx/4.5.2/../../../../pic32mx/lib/libc.a(lib_a-wctomb_r.o)
 .text._wctomb_r
                0x00000000       0x54 /home/gombe/workspace/machikania/origdev/pic32/compiler/pic32-tools/bin/../lib/gcc/pic32mx/4.5.2/../../../../pic32mx/lib/libc.a(lib_a-wctomb_r.o)
 .text          0x00000000        0x0 /home/gombe/workspace/machikania/origdev/pic32/compiler/pic32-tools/bin/../lib/gcc/pic32mx/4.5.2/../../../../pic32mx/lib/libc.a(lib_a-writer.o)
 .data          0x00000000        0x0 /home/gombe/workspace/machikania/origdev/pic32/compiler/pic32-tools/bin/../lib/gcc/pic32mx/4.5.2/../../../../pic32mx/lib/libc.a(lib_a-writer.o)
 .bss           0x00000000        0x0 /home/gombe/workspace/machikania/origdev/pic32/compiler/pic32-tools/bin/../lib/gcc/pic32mx/4.5.2/../../../../pic32mx/lib/libc.a(lib_a-writer.o)
 .reginfo       0x00000000       0x18 /home/gombe/workspace/machikania/origdev/pic32/compiler/pic32-tools/bin/../lib/gcc/pic32mx/4.5.2/../../../../pic32mx/lib/libc.a(lib_a-writer.o)
 .text          0x00000000        0x0 /home/gombe/workspace/machikania/origdev/pic32/compiler/pic32-tools/bin/../lib/gcc/pic32mx/4.5.2/../../../../pic32mx/lib/libc.a(lib_a-callocr.o)
 .data          0x00000000        0x0 /home/gombe/workspace/machikania/origdev/pic32/compiler/pic32-tools/bin/../lib/gcc/pic32mx/4.5.2/../../../../pic32mx/lib/libc.a(lib_a-callocr.o)
 .bss           0x00000000        0x0 /home/gombe/workspace/machikania/origdev/pic32/compiler/pic32-tools/bin/../lib/gcc/pic32mx/4.5.2/../../../../pic32mx/lib/libc.a(lib_a-callocr.o)
 .reginfo       0x00000000       0x18 /home/gombe/workspace/machikania/origdev/pic32/compiler/pic32-tools/bin/../lib/gcc/pic32mx/4.5.2/../../../../pic32mx/lib/libc.a(lib_a-callocr.o)
 .text          0x00000000        0x0 /home/gombe/workspace/machikania/origdev/pic32/compiler/pic32-tools/bin/../lib/gcc/pic32mx/4.5.2/../../../../pic32mx/lib/libc.a(lib_a-closer.o)
 .data          0x00000000        0x0 /home/gombe/workspace/machikania/origdev/pic32/compiler/pic32-tools/bin/../lib/gcc/pic32mx/4.5.2/../../../../pic32mx/lib/libc.a(lib_a-closer.o)
 .bss           0x00000000        0x0 /home/gombe/workspace/machikania/origdev/pic32/compiler/pic32-tools/bin/../lib/gcc/pic32mx/4.5.2/../../../../pic32mx/lib/libc.a(lib_a-closer.o)
 .reginfo       0x00000000       0x18 /home/gombe/workspace/machikania/origdev/pic32/compiler/pic32-tools/bin/../lib/gcc/pic32mx/4.5.2/../../../../pic32mx/lib/libc.a(lib_a-closer.o)
 .text          0x00000000        0x0 /home/gombe/workspace/machikania/origdev/pic32/compiler/pic32-tools/bin/../lib/gcc/pic32mx/4.5.2/../../../../pic32mx/lib/libc.a(lib_a-fclose.o)
 .data          0x00000000        0x0 /home/gombe/workspace/machikania/origdev/pic32/compiler/pic32-tools/bin/../lib/gcc/pic32mx/4.5.2/../../../../pic32mx/lib/libc.a(lib_a-fclose.o)
 .bss           0x00000000        0x0 /home/gombe/workspace/machikania/origdev/pic32/compiler/pic32-tools/bin/../lib/gcc/pic32mx/4.5.2/../../../../pic32mx/lib/libc.a(lib_a-fclose.o)
 .reginfo       0x00000000       0x18 /home/gombe/workspace/machikania/origdev/pic32/compiler/pic32-tools/bin/../lib/gcc/pic32mx/4.5.2/../../../../pic32mx/lib/libc.a(lib_a-fclose.o)
 .text          0x00000000        0x0 /home/gombe/workspace/machikania/origdev/pic32/compiler/pic32-tools/bin/../lib/gcc/pic32mx/4.5.2/../../../../pic32mx/lib/libc.a(lib_a-fstatr.o)
 .data          0x00000000        0x0 /home/gombe/workspace/machikania/origdev/pic32/compiler/pic32-tools/bin/../lib/gcc/pic32mx/4.5.2/../../../../pic32mx/lib/libc.a(lib_a-fstatr.o)
 .bss           0x00000000        0x0 /home/gombe/workspace/machikania/origdev/pic32/compiler/pic32-tools/bin/../lib/gcc/pic32mx/4.5.2/../../../../pic32mx/lib/libc.a(lib_a-fstatr.o)
 .reginfo       0x00000000       0x18 /home/gombe/workspace/machikania/origdev/pic32/compiler/pic32-tools/bin/../lib/gcc/pic32mx/4.5.2/../../../../pic32mx/lib/libc.a(lib_a-fstatr.o)
 .text          0x00000000        0x0 /home/gombe/workspace/machikania/origdev/pic32/compiler/pic32-tools/bin/../lib/gcc/pic32mx/4.5.2/../../../../pic32mx/lib/libc.a(lib_a-isattyr.o)
 .data          0x00000000        0x0 /home/gombe/workspace/machikania/origdev/pic32/compiler/pic32-tools/bin/../lib/gcc/pic32mx/4.5.2/../../../../pic32mx/lib/libc.a(lib_a-isattyr.o)
 .bss           0x00000000        0x0 /home/gombe/workspace/machikania/origdev/pic32/compiler/pic32-tools/bin/../lib/gcc/pic32mx/4.5.2/../../../../pic32mx/lib/libc.a(lib_a-isattyr.o)
 .reginfo       0x00000000       0x18 /home/gombe/workspace/machikania/origdev/pic32/compiler/pic32-tools/bin/../lib/gcc/pic32mx/4.5.2/../../../../pic32mx/lib/libc.a(lib_a-isattyr.o)
 .text          0x00000000        0x0 /home/gombe/workspace/machikania/origdev/pic32/compiler/pic32-tools/bin/../lib/gcc/pic32mx/4.5.2/../../../../pic32mx/lib/libc.a(lib_a-lseekr.o)
 .data          0x00000000        0x0 /home/gombe/workspace/machikania/origdev/pic32/compiler/pic32-tools/bin/../lib/gcc/pic32mx/4.5.2/../../../../pic32mx/lib/libc.a(lib_a-lseekr.o)
 .bss           0x00000000        0x0 /home/gombe/workspace/machikania/origdev/pic32/compiler/pic32-tools/bin/../lib/gcc/pic32mx/4.5.2/../../../../pic32mx/lib/libc.a(lib_a-lseekr.o)
 .reginfo       0x00000000       0x18 /home/gombe/workspace/machikania/origdev/pic32/compiler/pic32-tools/bin/../lib/gcc/pic32mx/4.5.2/../../../../pic32mx/lib/libc.a(lib_a-lseekr.o)
 .text          0x00000000        0x0 /home/gombe/workspace/machikania/origdev/pic32/compiler/pic32-tools/bin/../lib/gcc/pic32mx/4.5.2/../../../../pic32mx/lib/libc.a(lib_a-readr.o)
 .data          0x00000000        0x0 /home/gombe/workspace/machikania/origdev/pic32/compiler/pic32-tools/bin/../lib/gcc/pic32mx/4.5.2/../../../../pic32mx/lib/libc.a(lib_a-readr.o)
 .bss           0x00000000        0x0 /home/gombe/workspace/machikania/origdev/pic32/compiler/pic32-tools/bin/../lib/gcc/pic32mx/4.5.2/../../../../pic32mx/lib/libc.a(lib_a-readr.o)
 .reginfo       0x00000000       0x18 /home/gombe/workspace/machikania/origdev/pic32/compiler/pic32-tools/bin/../lib/gcc/pic32mx/4.5.2/../../../../pic32mx/lib/libc.a(lib_a-readr.o)
 .text          0x00000000        0x0 /home/gombe/workspace/machikania/origdev/pic32/compiler/pic32-tools/bin/../lib/gcc/pic32mx/4.5.2/../../../../pic32mx/lib/libc.a(lib_a-reent.o)
 .data          0x00000000        0x0 /home/gombe/workspace/machikania/origdev/pic32/compiler/pic32-tools/bin/../lib/gcc/pic32mx/4.5.2/../../../../pic32mx/lib/libc.a(lib_a-reent.o)
 .bss           0x00000000        0x0 /home/gombe/workspace/machikania/origdev/pic32/compiler/pic32-tools/bin/../lib/gcc/pic32mx/4.5.2/../../../../pic32mx/lib/libc.a(lib_a-reent.o)
 .reginfo       0x00000000       0x18 /home/gombe/workspace/machikania/origdev/pic32/compiler/pic32-tools/bin/../lib/gcc/pic32mx/4.5.2/../../../../pic32mx/lib/libc.a(lib_a-reent.o)
 .text.cleanup_glue
                0x00000000       0x44 /home/gombe/workspace/machikania/origdev/pic32/compiler/pic32-tools/bin/../lib/gcc/pic32mx/4.5.2/../../../../pic32mx/lib/libc.a(lib_a-reent.o)
 .text._reclaim_reent
                0x00000000      0x12c /home/gombe/workspace/machikania/origdev/pic32/compiler/pic32-tools/bin/../lib/gcc/pic32mx/4.5.2/../../../../pic32mx/lib/libc.a(lib_a-reent.o)
 .text._wrapup_reent
                0x00000000       0x9c /home/gombe/workspace/machikania/origdev/pic32/compiler/pic32-tools/bin/../lib/gcc/pic32mx/4.5.2/../../../../pic32mx/lib/libc.a(lib_a-reent.o)
 .text          0x00000000        0x0 /home/gombe/workspace/machikania/origdev/pic32/compiler/pic32-tools/bin/../lib/gcc/pic32mx/4.5.2/../../../../pic32mx/lib/libpic32.a(sbrk.o)
 .data          0x00000000        0x0 /home/gombe/workspace/machikania/origdev/pic32/compiler/pic32-tools/bin/../lib/gcc/pic32mx/4.5.2/../../../../pic32mx/lib/libpic32.a(sbrk.o)
 .bss           0x00000000        0x0 /home/gombe/workspace/machikania/origdev/pic32/compiler/pic32-tools/bin/../lib/gcc/pic32mx/4.5.2/../../../../pic32mx/lib/libpic32.a(sbrk.o)
 .reginfo       0x00000000       0x18 /home/gombe/workspace/machikania/origdev/pic32/compiler/pic32-tools/bin/../lib/gcc/pic32mx/4.5.2/../../../../pic32mx/lib/libpic32.a(sbrk.o)
 .text.getpagesize
                0x00000000        0x8 /home/gombe/workspace/machikania/origdev/pic32/compiler/pic32-tools/bin/../lib/gcc/pic32mx/4.5.2/../../../../pic32mx/lib/libpic32.a(sbrk.o)
 .text          0x00000000        0x0 /home/gombe/workspace/machikania/origdev/pic32/compiler/pic32-tools/bin/../lib/gcc/pic32mx/4.5.2/../../../../pic32mx/lib/libpic32.a(default-bootstrap-exception-handler.o)
 .data          0x00000000        0x0 /home/gombe/workspace/machikania/origdev/pic32/compiler/pic32-tools/bin/../lib/gcc/pic32mx/4.5.2/../../../../pic32mx/lib/libpic32.a(default-bootstrap-exception-handler.o)
 .bss           0x00000000        0x0 /home/gombe/workspace/machikania/origdev/pic32/compiler/pic32-tools/bin/../lib/gcc/pic32mx/4.5.2/../../../../pic32mx/lib/libpic32.a(default-bootstrap-exception-handler.o)
 .reginfo       0x00000000       0x18 /home/gombe/workspace/machikania/origdev/pic32/compiler/pic32-tools/bin/../lib/gcc/pic32mx/4.5.2/../../../../pic32mx/lib/libpic32.a(default-bootstrap-exception-handler.o)
 .text          0x00000000        0x0 /home/gombe/workspace/machikania/origdev/pic32/compiler/pic32-tools/bin/../lib/gcc/pic32mx/4.5.2/../../../../pic32mx/lib/libpic32.a(default-on-reset.o)
 .data          0x00000000        0x0 /home/gombe/workspace/machikania/origdev/pic32/compiler/pic32-tools/bin/../lib/gcc/pic32mx/4.5.2/../../../../pic32mx/lib/libpic32.a(default-on-reset.o)
 .bss           0x00000000        0x0 /home/gombe/workspace/machikania/origdev/pic32/compiler/pic32-tools/bin/../lib/gcc/pic32mx/4.5.2/../../../../pic32mx/lib/libpic32.a(default-on-reset.o)
 .reginfo       0x00000000       0x18 /home/gombe/workspace/machikania/origdev/pic32/compiler/pic32-tools/bin/../lib/gcc/pic32mx/4.5.2/../../../../pic32mx/lib/libpic32.a(default-on-reset.o)
 .text          0x00000000        0x0 /home/gombe/workspace/machikania/origdev/pic32/compiler/pic32-tools/bin/../lib/gcc/pic32mx/4.5.2/../../../../pic32mx/lib/libpic32.a(default-on-bootstrap.o)
 .data          0x00000000        0x0 /home/gombe/workspace/machikania/origdev/pic32/compiler/pic32-tools/bin/../lib/gcc/pic32mx/4.5.2/../../../../pic32mx/lib/libpic32.a(default-on-bootstrap.o)
 .bss           0x00000000        0x0 /home/gombe/workspace/machikania/origdev/pic32/compiler/pic32-tools/bin/../lib/gcc/pic32mx/4.5.2/../../../../pic32mx/lib/libpic32.a(default-on-bootstrap.o)
 .reginfo       0x00000000       0x18 /home/gombe/workspace/machikania/origdev/pic32/compiler/pic32-tools/bin/../lib/gcc/pic32mx/4.5.2/../../../../pic32mx/lib/libpic32.a(default-on-bootstrap.o)
 .data          0x00000000        0x0 /home/gombe/workspace/machikania/origdev/pic32/compiler/pic32-tools/bin/../lib/gcc/pic32mx/4.5.2/../../../../pic32mx/lib/libpic32.a(default-nmi-handler.o)
 .bss           0x00000000        0x0 /home/gombe/workspace/machikania/origdev/pic32/compiler/pic32-tools/bin/../lib/gcc/pic32mx/4.5.2/../../../../pic32mx/lib/libpic32.a(default-nmi-handler.o)
 .reginfo       0x00000000       0x18 /home/gombe/workspace/machikania/origdev/pic32/compiler/pic32-tools/bin/../lib/gcc/pic32mx/4.5.2/../../../../pic32mx/lib/libpic32.a(default-nmi-handler.o)
 .text          0x00000000        0x0 /home/gombe/workspace/machikania/origdev/pic32/compiler/pic32-tools/bin/../lib/gcc/pic32mx/4.5.2/../../../../pic32mx/lib/libpic32.a(_exit.o)
 .data          0x00000000        0x0 /home/gombe/workspace/machikania/origdev/pic32/compiler/pic32-tools/bin/../lib/gcc/pic32mx/4.5.2/../../../../pic32mx/lib/libpic32.a(_exit.o)
 .bss           0x00000000        0x0 /home/gombe/workspace/machikania/origdev/pic32/compiler/pic32-tools/bin/../lib/gcc/pic32mx/4.5.2/../../../../pic32mx/lib/libpic32.a(_exit.o)
 .reginfo       0x00000000       0x18 /home/gombe/workspace/machikania/origdev/pic32/compiler/pic32-tools/bin/../lib/gcc/pic32mx/4.5.2/../../../../pic32mx/lib/libpic32.a(_exit.o)
 .text          0x00000000        0x0 /home/gombe/workspace/machikania/origdev/pic32/compiler/pic32-tools/bin/../lib/gcc/pic32mx/4.5.2/../../../../pic32mx/lib/libpic32.a(isatty.o)
 .data          0x00000000        0x0 /home/gombe/workspace/machikania/origdev/pic32/compiler/pic32-tools/bin/../lib/gcc/pic32mx/4.5.2/../../../../pic32mx/lib/libpic32.a(isatty.o)
 .bss           0x00000000        0x0 /home/gombe/workspace/machikania/origdev/pic32/compiler/pic32-tools/bin/../lib/gcc/pic32mx/4.5.2/../../../../pic32mx/lib/libpic32.a(isatty.o)
 .reginfo       0x00000000       0x18 /home/gombe/workspace/machikania/origdev/pic32/compiler/pic32-tools/bin/../lib/gcc/pic32mx/4.5.2/../../../../pic32mx/lib/libpic32.a(isatty.o)
 .text          0x00000000        0x0 /home/gombe/workspace/machikania/origdev/pic32/compiler/pic32-tools/bin/../lib/gcc/pic32mx/4.5.2/../../../../pic32mx/lib/libpic32.a(read.o)
 .data          0x00000000        0x0 /home/gombe/workspace/machikania/origdev/pic32/compiler/pic32-tools/bin/../lib/gcc/pic32mx/4.5.2/../../../../pic32mx/lib/libpic32.a(read.o)
 .bss           0x00000000        0x0 /home/gombe/workspace/machikania/origdev/pic32/compiler/pic32-tools/bin/../lib/gcc/pic32mx/4.5.2/../../../../pic32mx/lib/libpic32.a(read.o)
 .reginfo       0x00000000       0x18 /home/gombe/workspace/machikania/origdev/pic32/compiler/pic32-tools/bin/../lib/gcc/pic32mx/4.5.2/../../../../pic32mx/lib/libpic32.a(read.o)
 .text          0x00000000        0x0 /home/gombe/workspace/machikania/origdev/pic32/compiler/pic32-tools/bin/../lib/gcc/pic32mx/4.5.2/../../../../pic32mx/lib/libpic32.a(write.o)
 .data          0x00000000        0x0 /home/gombe/workspace/machikania/origdev/pic32/compiler/pic32-tools/bin/../lib/gcc/pic32mx/4.5.2/../../../../pic32mx/lib/libpic32.a(write.o)
 .bss           0x00000000        0x0 /home/gombe/workspace/machikania/origdev/pic32/compiler/pic32-tools/bin/../lib/gcc/pic32mx/4.5.2/../../../../pic32mx/lib/libpic32.a(write.o)
 .reginfo       0x00000000       0x18 /home/gombe/workspace/machikania/origdev/pic32/compiler/pic32-tools/bin/../lib/gcc/pic32mx/4.5.2/../../../../pic32mx/lib/libpic32.a(write.o)
 .text          0x00000000        0x0 /home/gombe/workspace/machikania/origdev/pic32/compiler/pic32-tools/bin/../lib/gcc/pic32mx/4.5.2/../../../../pic32mx/lib/libpic32.a(lseek.o)
 .data          0x00000000        0x0 /home/gombe/workspace/machikania/origdev/pic32/compiler/pic32-tools/bin/../lib/gcc/pic32mx/4.5.2/../../../../pic32mx/lib/libpic32.a(lseek.o)
 .bss           0x00000000        0x0 /home/gombe/workspace/machikania/origdev/pic32/compiler/pic32-tools/bin/../lib/gcc/pic32mx/4.5.2/../../../../pic32mx/lib/libpic32.a(lseek.o)
 .reginfo       0x00000000       0x18 /home/gombe/workspace/machikania/origdev/pic32/compiler/pic32-tools/bin/../lib/gcc/pic32mx/4.5.2/../../../../pic32mx/lib/libpic32.a(lseek.o)
 .text          0x00000000        0x0 /home/gombe/workspace/machikania/origdev/pic32/compiler/pic32-tools/bin/../lib/gcc/pic32mx/4.5.2/../../../../pic32mx/lib/libpic32.a(close.o)
 .data          0x00000000        0x0 /home/gombe/workspace/machikania/origdev/pic32/compiler/pic32-tools/bin/../lib/gcc/pic32mx/4.5.2/../../../../pic32mx/lib/libpic32.a(close.o)
 .bss           0x00000000        0x0 /home/gombe/workspace/machikania/origdev/pic32/compiler/pic32-tools/bin/../lib/gcc/pic32mx/4.5.2/../../../../pic32mx/lib/libpic32.a(close.o)
 .reginfo       0x00000000       0x18 /home/gombe/workspace/machikania/origdev/pic32/compiler/pic32-tools/bin/../lib/gcc/pic32mx/4.5.2/../../../../pic32mx/lib/libpic32.a(close.o)
 .text          0x00000000        0x0 /home/gombe/workspace/machikania/origdev/pic32/compiler/pic32-tools/bin/../lib/gcc/pic32mx/4.5.2/../../../../pic32mx/lib/libpic32.a(fstat.o)
 .data          0x00000000        0x0 /home/gombe/workspace/machikania/origdev/pic32/compiler/pic32-tools/bin/../lib/gcc/pic32mx/4.5.2/../../../../pic32mx/lib/libpic32.a(fstat.o)
 .bss           0x00000000        0x0 /home/gombe/workspace/machikania/origdev/pic32/compiler/pic32-tools/bin/../lib/gcc/pic32mx/4.5.2/../../../../pic32mx/lib/libpic32.a(fstat.o)
 .reginfo       0x00000000       0x18 /home/gombe/workspace/machikania/origdev/pic32/compiler/pic32-tools/bin/../lib/gcc/pic32mx/4.5.2/../../../../pic32mx/lib/libpic32.a(fstat.o)
 .text          0x00000000        0x0 /home/gombe/workspace/machikania/origdev/pic32/compiler/pic32-tools/bin/../lib/gcc/pic32mx/4.5.2/../../../../pic32mx/lib/libpic32.a(kill.o)
 .data          0x00000000        0x0 /home/gombe/workspace/machikania/origdev/pic32/compiler/pic32-tools/bin/../lib/gcc/pic32mx/4.5.2/../../../../pic32mx/lib/libpic32.a(kill.o)
 .bss           0x00000000        0x0 /home/gombe/workspace/machikania/origdev/pic32/compiler/pic32-tools/bin/../lib/gcc/pic32mx/4.5.2/../../../../pic32mx/lib/libpic32.a(kill.o)
 .reginfo       0x00000000       0x18 /home/gombe/workspace/machikania/origdev/pic32/compiler/pic32-tools/bin/../lib/gcc/pic32mx/4.5.2/../../../../pic32mx/lib/libpic32.a(kill.o)
 .text          0x00000000        0x0 /home/gombe/workspace/machikania/origdev/pic32/compiler/pic32-tools/bin/../lib/gcc/pic32mx/4.5.2/../../../../pic32mx/lib/libpic32.a(getpid.o)
 .data          0x00000000        0x0 /home/gombe/workspace/machikania/origdev/pic32/compiler/pic32-tools/bin/../lib/gcc/pic32mx/4.5.2/../../../../pic32mx/lib/libpic32.a(getpid.o)
 .bss           0x00000000        0x0 /home/gombe/workspace/machikania/origdev/pic32/compiler/pic32-tools/bin/../lib/gcc/pic32mx/4.5.2/../../../../pic32mx/lib/libpic32.a(getpid.o)
 .reginfo       0x00000000       0x18 /home/gombe/workspace/machikania/origdev/pic32/compiler/pic32-tools/bin/../lib/gcc/pic32mx/4.5.2/../../../../pic32mx/lib/libpic32.a(getpid.o)
 .text          0x00000000        0x0 /home/gombe/workspace/machikania/origdev/pic32/compiler/pic32-tools/bin/../lib/gcc/pic32mx/4.5.2/../../../../pic32mx/lib/libpic32.a(xc32_uart.o)
 .data          0x00000000        0x0 /home/gombe/workspace/machikania/origdev/pic32/compiler/pic32-tools/bin/../lib/gcc/pic32mx/4.5.2/../../../../pic32mx/lib/libpic32.a(xc32_uart.o)
 .bss           0x00000000        0x0 /home/gombe/workspace/machikania/origdev/pic32/compiler/pic32-tools/bin/../lib/gcc/pic32mx/4.5.2/../../../../pic32mx/lib/libpic32.a(xc32_uart.o)
 .reginfo       0x00000000       0x18 /home/gombe/workspace/machikania/origdev/pic32/compiler/pic32-tools/bin/../lib/gcc/pic32mx/4.5.2/../../../../pic32mx/lib/libpic32.a(xc32_uart.o)
 .data          0x00000000        0x0 /home/gombe/workspace/machikania/origdev/pic32/compiler/pic32-tools/bin/../lib/gcc/pic32mx/4.5.2/../../../../pic32mx/lib/libpic32.a(pic32_software_reset.o)
 .bss           0x00000000        0x0 /home/gombe/workspace/machikania/origdev/pic32/compiler/pic32-tools/bin/../lib/gcc/pic32mx/4.5.2/../../../../pic32mx/lib/libpic32.a(pic32_software_reset.o)
 .reginfo       0x00000000       0x18 /home/gombe/workspace/machikania/origdev/pic32/compiler/pic32-tools/bin/../lib/gcc/pic32mx/4.5.2/../../../../pic32mx/lib/libpic32.a(pic32_software_reset.o)
 .text          0x00000000        0x0 /home/gombe/workspace/machikania/origdev/pic32/compiler/pic32-tools/bin/../lib/gcc/pic32mx/4.5.2/../../../../pic32mx/lib/libpic32.a(vector0.o)
 .data          0x00000000        0x0 /home/gombe/workspace/machikania/origdev/pic32/compiler/pic32-tools/bin/../lib/gcc/pic32mx/4.5.2/../../../../pic32mx/lib/libpic32.a(vector0.o)
 .bss           0x00000000        0x0 /home/gombe/workspace/machikania/origdev/pic32/compiler/pic32-tools/bin/../lib/gcc/pic32mx/4.5.2/../../../../pic32mx/lib/libpic32.a(vector0.o)
 .reginfo       0x00000000       0x18 /home/gombe/workspace/machikania/origdev/pic32/compiler/pic32-tools/bin/../lib/gcc/pic32mx/4.5.2/../../../../pic32mx/lib/libpic32.a(vector0.o)
 .text          0x00000000        0x0 /home/gombe/workspace/machikania/origdev/pic32/compiler/pic32-tools/bin/../lib/gcc/pic32mx/4.5.2/../../../../pic32mx/lib/libpic32.a(vector1.o)
 .data          0x00000000        0x0 /home/gombe/workspace/machikania/origdev/pic32/compiler/pic32-tools/bin/../lib/gcc/pic32mx/4.5.2/../../../../pic32mx/lib/libpic32.a(vector1.o)
 .bss           0x00000000        0x0 /home/gombe/workspace/machikania/origdev/pic32/compiler/pic32-tools/bin/../lib/gcc/pic32mx/4.5.2/../../../../pic32mx/lib/libpic32.a(vector1.o)
 .reginfo       0x00000000       0x18 /home/gombe/workspace/machikania/origdev/pic32/compiler/pic32-tools/bin/../lib/gcc/pic32mx/4.5.2/../../../../pic32mx/lib/libpic32.a(vector1.o)
 .text          0x00000000        0x0 /home/gombe/workspace/machikania/origdev/pic32/compiler/pic32-tools/bin/../lib/gcc/pic32mx/4.5.2/../../../../pic32mx/lib/libpic32.a(vector2.o)
 .data          0x00000000        0x0 /home/gombe/workspace/machikania/origdev/pic32/compiler/pic32-tools/bin/../lib/gcc/pic32mx/4.5.2/../../../../pic32mx/lib/libpic32.a(vector2.o)
 .bss           0x00000000        0x0 /home/gombe/workspace/machikania/origdev/pic32/compiler/pic32-tools/bin/../lib/gcc/pic32mx/4.5.2/../../../../pic32mx/lib/libpic32.a(vector2.o)
 .reginfo       0x00000000       0x18 /home/gombe/workspace/machikania/origdev/pic32/compiler/pic32-tools/bin/../lib/gcc/pic32mx/4.5.2/../../../../pic32mx/lib/libpic32.a(vector2.o)
 .text          0x00000000        0x0 /home/gombe/workspace/machikania/origdev/pic32/compiler/pic32-tools/bin/../lib/gcc/pic32mx/4.5.2/../../../../pic32mx/lib/libpic32.a(vector3.o)
 .data          0x00000000        0x0 /home/gombe/workspace/machikania/origdev/pic32/compiler/pic32-tools/bin/../lib/gcc/pic32mx/4.5.2/../../../../pic32mx/lib/libpic32.a(vector3.o)
 .bss           0x00000000        0x0 /home/gombe/workspace/machikania/origdev/pic32/compiler/pic32-tools/bin/../lib/gcc/pic32mx/4.5.2/../../../../pic32mx/lib/libpic32.a(vector3.o)
 .reginfo       0x00000000       0x18 /home/gombe/workspace/machikania/origdev/pic32/compiler/pic32-tools/bin/../lib/gcc/pic32mx/4.5.2/../../../../pic32mx/lib/libpic32.a(vector3.o)
 .text          0x00000000        0x0 /home/gombe/workspace/machikania/origdev/pic32/compiler/pic32-tools/bin/../lib/gcc/pic32mx/4.5.2/../../../../pic32mx/lib/libpic32.a(vector4.o)
 .data          0x00000000        0x0 /home/gombe/workspace/machikania/origdev/pic32/compiler/pic32-tools/bin/../lib/gcc/pic32mx/4.5.2/../../../../pic32mx/lib/libpic32.a(vector4.o)
 .bss           0x00000000        0x0 /home/gombe/workspace/machikania/origdev/pic32/compiler/pic32-tools/bin/../lib/gcc/pic32mx/4.5.2/../../../../pic32mx/lib/libpic32.a(vector4.o)
 .reginfo       0x00000000       0x18 /home/gombe/workspace/machikania/origdev/pic32/compiler/pic32-tools/bin/../lib/gcc/pic32mx/4.5.2/../../../../pic32mx/lib/libpic32.a(vector4.o)
 .text          0x00000000        0x0 /home/gombe/workspace/machikania/origdev/pic32/compiler/pic32-tools/bin/../lib/gcc/pic32mx/4.5.2/../../../../pic32mx/lib/libpic32.a(vector5.o)
 .data          0x00000000        0x0 /home/gombe/workspace/machikania/origdev/pic32/compiler/pic32-tools/bin/../lib/gcc/pic32mx/4.5.2/../../../../pic32mx/lib/libpic32.a(vector5.o)
 .bss           0x00000000        0x0 /home/gombe/workspace/machikania/origdev/pic32/compiler/pic32-tools/bin/../lib/gcc/pic32mx/4.5.2/../../../../pic32mx/lib/libpic32.a(vector5.o)
 .reginfo       0x00000000       0x18 /home/gombe/workspace/machikania/origdev/pic32/compiler/pic32-tools/bin/../lib/gcc/pic32mx/4.5.2/../../../../pic32mx/lib/libpic32.a(vector5.o)
 .text          0x00000000        0x0 /home/gombe/workspace/machikania/origdev/pic32/compiler/pic32-tools/bin/../lib/gcc/pic32mx/4.5.2/../../../../pic32mx/lib/libpic32.a(vector7.o)
 .data          0x00000000        0x0 /home/gombe/workspace/machikania/origdev/pic32/compiler/pic32-tools/bin/../lib/gcc/pic32mx/4.5.2/../../../../pic32mx/lib/libpic32.a(vector7.o)
 .bss           0x00000000        0x0 /home/gombe/workspace/machikania/origdev/pic32/compiler/pic32-tools/bin/../lib/gcc/pic32mx/4.5.2/../../../../pic32mx/lib/libpic32.a(vector7.o)
 .reginfo       0x00000000       0x18 /home/gombe/workspace/machikania/origdev/pic32/compiler/pic32-tools/bin/../lib/gcc/pic32mx/4.5.2/../../../../pic32mx/lib/libpic32.a(vector7.o)
 .text          0x00000000        0x0 /home/gombe/workspace/machikania/origdev/pic32/compiler/pic32-tools/bin/../lib/gcc/pic32mx/4.5.2/../../../../pic32mx/lib/libpic32.a(vector9.o)
 .data          0x00000000        0x0 /home/gombe/workspace/machikania/origdev/pic32/compiler/pic32-tools/bin/../lib/gcc/pic32mx/4.5.2/../../../../pic32mx/lib/libpic32.a(vector9.o)
 .bss           0x00000000        0x0 /home/gombe/workspace/machikania/origdev/pic32/compiler/pic32-tools/bin/../lib/gcc/pic32mx/4.5.2/../../../../pic32mx/lib/libpic32.a(vector9.o)
 .reginfo       0x00000000       0x18 /home/gombe/workspace/machikania/origdev/pic32/compiler/pic32-tools/bin/../lib/gcc/pic32mx/4.5.2/../../../../pic32mx/lib/libpic32.a(vector9.o)
 .text          0x00000000        0x0 /home/gombe/workspace/machikania/origdev/pic32/compiler/pic32-tools/bin/../lib/gcc/pic32mx/4.5.2/../../../../pic32mx/lib/libpic32.a(vector11.o)
 .data          0x00000000        0x0 /home/gombe/workspace/machikania/origdev/pic32/compiler/pic32-tools/bin/../lib/gcc/pic32mx/4.5.2/../../../../pic32mx/lib/libpic32.a(vector11.o)
 .bss           0x00000000        0x0 /home/gombe/workspace/machikania/origdev/pic32/compiler/pic32-tools/bin/../lib/gcc/pic32mx/4.5.2/../../../../pic32mx/lib/libpic32.a(vector11.o)
 .reginfo       0x00000000       0x18 /home/gombe/workspace/machikania/origdev/pic32/compiler/pic32-tools/bin/../lib/gcc/pic32mx/4.5.2/../../../../pic32mx/lib/libpic32.a(vector11.o)
 .text          0x00000000        0x0 /home/gombe/workspace/machikania/origdev/pic32/compiler/pic32-tools/bin/../lib/gcc/pic32mx/4.5.2/../../../../pic32mx/lib/libpic32.a(vector12.o)
 .data          0x00000000        0x0 /home/gombe/workspace/machikania/origdev/pic32/compiler/pic32-tools/bin/../lib/gcc/pic32mx/4.5.2/../../../../pic32mx/lib/libpic32.a(vector12.o)
 .bss           0x00000000        0x0 /home/gombe/workspace/machikania/origdev/pic32/compiler/pic32-tools/bin/../lib/gcc/pic32mx/4.5.2/../../../../pic32mx/lib/libpic32.a(vector12.o)
 .reginfo       0x00000000       0x18 /home/gombe/workspace/machikania/origdev/pic32/compiler/pic32-tools/bin/../lib/gcc/pic32mx/4.5.2/../../../../pic32mx/lib/libpic32.a(vector12.o)
 .text          0x00000000        0x0 /home/gombe/workspace/machikania/origdev/pic32/compiler/pic32-tools/bin/../lib/gcc/pic32mx/4.5.2/../../../../pic32mx/lib/libpic32.a(vector13.o)
 .data          0x00000000        0x0 /home/gombe/workspace/machikania/origdev/pic32/compiler/pic32-tools/bin/../lib/gcc/pic32mx/4.5.2/../../../../pic32mx/lib/libpic32.a(vector13.o)
 .bss           0x00000000        0x0 /home/gombe/workspace/machikania/origdev/pic32/compiler/pic32-tools/bin/../lib/gcc/pic32mx/4.5.2/../../../../pic32mx/lib/libpic32.a(vector13.o)
 .reginfo       0x00000000       0x18 /home/gombe/workspace/machikania/origdev/pic32/compiler/pic32-tools/bin/../lib/gcc/pic32mx/4.5.2/../../../../pic32mx/lib/libpic32.a(vector13.o)
 .text          0x00000000        0x0 /home/gombe/workspace/machikania/origdev/pic32/compiler/pic32-tools/bin/../lib/gcc/pic32mx/4.5.2/../../../../pic32mx/lib/libpic32.a(vector15.o)
 .data          0x00000000        0x0 /home/gombe/workspace/machikania/origdev/pic32/compiler/pic32-tools/bin/../lib/gcc/pic32mx/4.5.2/../../../../pic32mx/lib/libpic32.a(vector15.o)
 .bss           0x00000000        0x0 /home/gombe/workspace/machikania/origdev/pic32/compiler/pic32-tools/bin/../lib/gcc/pic32mx/4.5.2/../../../../pic32mx/lib/libpic32.a(vector15.o)
 .reginfo       0x00000000       0x18 /home/gombe/workspace/machikania/origdev/pic32/compiler/pic32-tools/bin/../lib/gcc/pic32mx/4.5.2/../../../../pic32mx/lib/libpic32.a(vector15.o)
 .text          0x00000000        0x0 /home/gombe/workspace/machikania/origdev/pic32/compiler/pic32-tools/bin/../lib/gcc/pic32mx/4.5.2/../../../../pic32mx/lib/libpic32.a(vector16.o)
 .data          0x00000000        0x0 /home/gombe/workspace/machikania/origdev/pic32/compiler/pic32-tools/bin/../lib/gcc/pic32mx/4.5.2/../../../../pic32mx/lib/libpic32.a(vector16.o)
 .bss           0x00000000        0x0 /home/gombe/workspace/machikania/origdev/pic32/compiler/pic32-tools/bin/../lib/gcc/pic32mx/4.5.2/../../../../pic32mx/lib/libpic32.a(vector16.o)
 .reginfo       0x00000000       0x18 /home/gombe/workspace/machikania/origdev/pic32/compiler/pic32-tools/bin/../lib/gcc/pic32mx/4.5.2/../../../../pic32mx/lib/libpic32.a(vector16.o)
 .text          0x00000000        0x0 /home/gombe/workspace/machikania/origdev/pic32/compiler/pic32-tools/bin/../lib/gcc/pic32mx/4.5.2/../../../../pic32mx/lib/libpic32.a(vector17.o)
 .data          0x00000000        0x0 /home/gombe/workspace/machikania/origdev/pic32/compiler/pic32-tools/bin/../lib/gcc/pic32mx/4.5.2/../../../../pic32mx/lib/libpic32.a(vector17.o)
 .bss           0x00000000        0x0 /home/gombe/workspace/machikania/origdev/pic32/compiler/pic32-tools/bin/../lib/gcc/pic32mx/4.5.2/../../../../pic32mx/lib/libpic32.a(vector17.o)
 .reginfo       0x00000000       0x18 /home/gombe/workspace/machikania/origdev/pic32/compiler/pic32-tools/bin/../lib/gcc/pic32mx/4.5.2/../../../../pic32mx/lib/libpic32.a(vector17.o)
 .text          0x00000000        0x0 /home/gombe/workspace/machikania/origdev/pic32/compiler/pic32-tools/bin/../lib/gcc/pic32mx/4.5.2/../../../../pic32mx/lib/libpic32.a(vector18.o)
 .data          0x00000000        0x0 /home/gombe/workspace/machikania/origdev/pic32/compiler/pic32-tools/bin/../lib/gcc/pic32mx/4.5.2/../../../../pic32mx/lib/libpic32.a(vector18.o)
 .bss           0x00000000        0x0 /home/gombe/workspace/machikania/origdev/pic32/compiler/pic32-tools/bin/../lib/gcc/pic32mx/4.5.2/../../../../pic32mx/lib/libpic32.a(vector18.o)
 .reginfo       0x00000000       0x18 /home/gombe/workspace/machikania/origdev/pic32/compiler/pic32-tools/bin/../lib/gcc/pic32mx/4.5.2/../../../../pic32mx/lib/libpic32.a(vector18.o)
 .text          0x00000000        0x0 /home/gombe/workspace/machikania/origdev/pic32/compiler/pic32-tools/bin/../lib/gcc/pic32mx/4.5.2/../../../../pic32mx/lib/libpic32.a(vector19.o)
 .data          0x00000000        0x0 /home/gombe/workspace/machikania/origdev/pic32/compiler/pic32-tools/bin/../lib/gcc/pic32mx/4.5.2/../../../../pic32mx/lib/libpic32.a(vector19.o)
 .bss           0x00000000        0x0 /home/gombe/workspace/machikania/origdev/pic32/compiler/pic32-tools/bin/../lib/gcc/pic32mx/4.5.2/../../../../pic32mx/lib/libpic32.a(vector19.o)
 .reginfo       0x00000000       0x18 /home/gombe/workspace/machikania/origdev/pic32/compiler/pic32-tools/bin/../lib/gcc/pic32mx/4.5.2/../../../../pic32mx/lib/libpic32.a(vector19.o)
 .text          0x00000000        0x0 /home/gombe/workspace/machikania/origdev/pic32/compiler/pic32-tools/bin/../lib/gcc/pic32mx/4.5.2/../../../../pic32mx/lib/libpic32.a(vector20.o)
 .data          0x00000000        0x0 /home/gombe/workspace/machikania/origdev/pic32/compiler/pic32-tools/bin/../lib/gcc/pic32mx/4.5.2/../../../../pic32mx/lib/libpic32.a(vector20.o)
 .bss           0x00000000        0x0 /home/gombe/workspace/machikania/origdev/pic32/compiler/pic32-tools/bin/../lib/gcc/pic32mx/4.5.2/../../../../pic32mx/lib/libpic32.a(vector20.o)
 .reginfo       0x00000000       0x18 /home/gombe/workspace/machikania/origdev/pic32/compiler/pic32-tools/bin/../lib/gcc/pic32mx/4.5.2/../../../../pic32mx/lib/libpic32.a(vector20.o)
 .text          0x00000000        0x0 /home/gombe/workspace/machikania/origdev/pic32/compiler/pic32-tools/bin/../lib/gcc/pic32mx/4.5.2/../../../../pic32mx/lib/libpic32.a(vector21.o)
 .data          0x00000000        0x0 /home/gombe/workspace/machikania/origdev/pic32/compiler/pic32-tools/bin/../lib/gcc/pic32mx/4.5.2/../../../../pic32mx/lib/libpic32.a(vector21.o)
 .bss           0x00000000        0x0 /home/gombe/workspace/machikania/origdev/pic32/compiler/pic32-tools/bin/../lib/gcc/pic32mx/4.5.2/../../../../pic32mx/lib/libpic32.a(vector21.o)
 .reginfo       0x00000000       0x18 /home/gombe/workspace/machikania/origdev/pic32/compiler/pic32-tools/bin/../lib/gcc/pic32mx/4.5.2/../../../../pic32mx/lib/libpic32.a(vector21.o)
 .text          0x00000000        0x0 /home/gombe/workspace/machikania/origdev/pic32/compiler/pic32-tools/bin/../lib/gcc/pic32mx/4.5.2/../../../../pic32mx/lib/libpic32.a(vector22.o)
 .data          0x00000000        0x0 /home/gombe/workspace/machikania/origdev/pic32/compiler/pic32-tools/bin/../lib/gcc/pic32mx/4.5.2/../../../../pic32mx/lib/libpic32.a(vector22.o)
 .bss           0x00000000        0x0 /home/gombe/workspace/machikania/origdev/pic32/compiler/pic32-tools/bin/../lib/gcc/pic32mx/4.5.2/../../../../pic32mx/lib/libpic32.a(vector22.o)
 .reginfo       0x00000000       0x18 /home/gombe/workspace/machikania/origdev/pic32/compiler/pic32-tools/bin/../lib/gcc/pic32mx/4.5.2/../../../../pic32mx/lib/libpic32.a(vector22.o)
 .text          0x00000000        0x0 /home/gombe/workspace/machikania/origdev/pic32/compiler/pic32-tools/bin/../lib/gcc/pic32mx/4.5.2/../../../../pic32mx/lib/libpic32.a(vector23.o)
 .data          0x00000000        0x0 /home/gombe/workspace/machikania/origdev/pic32/compiler/pic32-tools/bin/../lib/gcc/pic32mx/4.5.2/../../../../pic32mx/lib/libpic32.a(vector23.o)
 .bss           0x00000000        0x0 /home/gombe/workspace/machikania/origdev/pic32/compiler/pic32-tools/bin/../lib/gcc/pic32mx/4.5.2/../../../../pic32mx/lib/libpic32.a(vector23.o)
 .reginfo       0x00000000       0x18 /home/gombe/workspace/machikania/origdev/pic32/compiler/pic32-tools/bin/../lib/gcc/pic32mx/4.5.2/../../../../pic32mx/lib/libpic32.a(vector23.o)
 .text          0x00000000        0x0 /home/gombe/workspace/machikania/origdev/pic32/compiler/pic32-tools/bin/../lib/gcc/pic32mx/4.5.2/../../../../pic32mx/lib/libpic32.a(vector24.o)
 .data          0x00000000        0x0 /home/gombe/workspace/machikania/origdev/pic32/compiler/pic32-tools/bin/../lib/gcc/pic32mx/4.5.2/../../../../pic32mx/lib/libpic32.a(vector24.o)
 .bss           0x00000000        0x0 /home/gombe/workspace/machikania/origdev/pic32/compiler/pic32-tools/bin/../lib/gcc/pic32mx/4.5.2/../../../../pic32mx/lib/libpic32.a(vector24.o)
 .reginfo       0x00000000       0x18 /home/gombe/workspace/machikania/origdev/pic32/compiler/pic32-tools/bin/../lib/gcc/pic32mx/4.5.2/../../../../pic32mx/lib/libpic32.a(vector24.o)
 .text          0x00000000        0x0 /home/gombe/workspace/machikania/origdev/pic32/compiler/pic32-tools/bin/../lib/gcc/pic32mx/4.5.2/../../../../pic32mx/lib/libpic32.a(vector25.o)
 .data          0x00000000        0x0 /home/gombe/workspace/machikania/origdev/pic32/compiler/pic32-tools/bin/../lib/gcc/pic32mx/4.5.2/../../../../pic32mx/lib/libpic32.a(vector25.o)
 .bss           0x00000000        0x0 /home/gombe/workspace/machikania/origdev/pic32/compiler/pic32-tools/bin/../lib/gcc/pic32mx/4.5.2/../../../../pic32mx/lib/libpic32.a(vector25.o)
 .reginfo       0x00000000       0x18 /home/gombe/workspace/machikania/origdev/pic32/compiler/pic32-tools/bin/../lib/gcc/pic32mx/4.5.2/../../../../pic32mx/lib/libpic32.a(vector25.o)
 .text          0x00000000        0x0 /home/gombe/workspace/machikania/origdev/pic32/compiler/pic32-tools/bin/../lib/gcc/pic32mx/4.5.2/../../../../pic32mx/lib/libpic32.a(vector26.o)
 .data          0x00000000        0x0 /home/gombe/workspace/machikania/origdev/pic32/compiler/pic32-tools/bin/../lib/gcc/pic32mx/4.5.2/../../../../pic32mx/lib/libpic32.a(vector26.o)
 .bss           0x00000000        0x0 /home/gombe/workspace/machikania/origdev/pic32/compiler/pic32-tools/bin/../lib/gcc/pic32mx/4.5.2/../../../../pic32mx/lib/libpic32.a(vector26.o)
 .reginfo       0x00000000       0x18 /home/gombe/workspace/machikania/origdev/pic32/compiler/pic32-tools/bin/../lib/gcc/pic32mx/4.5.2/../../../../pic32mx/lib/libpic32.a(vector26.o)
 .text          0x00000000        0x0 /home/gombe/workspace/machikania/origdev/pic32/compiler/pic32-tools/bin/../lib/gcc/pic32mx/4.5.2/../../../../pic32mx/lib/libpic32.a(vector27.o)
 .data          0x00000000        0x0 /home/gombe/workspace/machikania/origdev/pic32/compiler/pic32-tools/bin/../lib/gcc/pic32mx/4.5.2/../../../../pic32mx/lib/libpic32.a(vector27.o)
 .bss           0x00000000        0x0 /home/gombe/workspace/machikania/origdev/pic32/compiler/pic32-tools/bin/../lib/gcc/pic32mx/4.5.2/../../../../pic32mx/lib/libpic32.a(vector27.o)
 .reginfo       0x00000000       0x18 /home/gombe/workspace/machikania/origdev/pic32/compiler/pic32-tools/bin/../lib/gcc/pic32mx/4.5.2/../../../../pic32mx/lib/libpic32.a(vector27.o)
 .text          0x00000000        0x0 /home/gombe/workspace/machikania/origdev/pic32/compiler/pic32-tools/bin/../lib/gcc/pic32mx/4.5.2/../../../../pic32mx/lib/libpic32.a(vector28.o)
 .data          0x00000000        0x0 /home/gombe/workspace/machikania/origdev/pic32/compiler/pic32-tools/bin/../lib/gcc/pic32mx/4.5.2/../../../../pic32mx/lib/libpic32.a(vector28.o)
 .bss           0x00000000        0x0 /home/gombe/workspace/machikania/origdev/pic32/compiler/pic32-tools/bin/../lib/gcc/pic32mx/4.5.2/../../../../pic32mx/lib/libpic32.a(vector28.o)
 .reginfo       0x00000000       0x18 /home/gombe/workspace/machikania/origdev/pic32/compiler/pic32-tools/bin/../lib/gcc/pic32mx/4.5.2/../../../../pic32mx/lib/libpic32.a(vector28.o)
 .text          0x00000000        0x0 /home/gombe/workspace/machikania/origdev/pic32/compiler/pic32-tools/bin/../lib/gcc/pic32mx/4.5.2/../../../../pic32mx/lib/libpic32.a(vector29.o)
 .data          0x00000000        0x0 /home/gombe/workspace/machikania/origdev/pic32/compiler/pic32-tools/bin/../lib/gcc/pic32mx/4.5.2/../../../../pic32mx/lib/libpic32.a(vector29.o)
 .bss           0x00000000        0x0 /home/gombe/workspace/machikania/origdev/pic32/compiler/pic32-tools/bin/../lib/gcc/pic32mx/4.5.2/../../../../pic32mx/lib/libpic32.a(vector29.o)
 .reginfo       0x00000000       0x18 /home/gombe/workspace/machikania/origdev/pic32/compiler/pic32-tools/bin/../lib/gcc/pic32mx/4.5.2/../../../../pic32mx/lib/libpic32.a(vector29.o)
 .text          0x00000000        0x0 /home/gombe/workspace/machikania/origdev/pic32/compiler/pic32-tools/bin/../lib/gcc/pic32mx/4.5.2/../../../../pic32mx/lib/libpic32.a(vector30.o)
 .data          0x00000000        0x0 /home/gombe/workspace/machikania/origdev/pic32/compiler/pic32-tools/bin/../lib/gcc/pic32mx/4.5.2/../../../../pic32mx/lib/libpic32.a(vector30.o)
 .bss           0x00000000        0x0 /home/gombe/workspace/machikania/origdev/pic32/compiler/pic32-tools/bin/../lib/gcc/pic32mx/4.5.2/../../../../pic32mx/lib/libpic32.a(vector30.o)
 .reginfo       0x00000000       0x18 /home/gombe/workspace/machikania/origdev/pic32/compiler/pic32-tools/bin/../lib/gcc/pic32mx/4.5.2/../../../../pic32mx/lib/libpic32.a(vector30.o)
 .text          0x00000000        0x0 /home/gombe/workspace/machikania/origdev/pic32/compiler/pic32-tools/bin/../lib/gcc/pic32mx/4.5.2/../../../../pic32mx/lib/libpic32.a(vector31.o)
 .data          0x00000000        0x0 /home/gombe/workspace/machikania/origdev/pic32/compiler/pic32-tools/bin/../lib/gcc/pic32mx/4.5.2/../../../../pic32mx/lib/libpic32.a(vector31.o)
 .bss           0x00000000        0x0 /home/gombe/workspace/machikania/origdev/pic32/compiler/pic32-tools/bin/../lib/gcc/pic32mx/4.5.2/../../../../pic32mx/lib/libpic32.a(vector31.o)
 .reginfo       0x00000000       0x18 /home/gombe/workspace/machikania/origdev/pic32/compiler/pic32-tools/bin/../lib/gcc/pic32mx/4.5.2/../../../../pic32mx/lib/libpic32.a(vector31.o)
 .text          0x00000000        0x0 /home/gombe/workspace/machikania/origdev/pic32/compiler/pic32-tools/bin/../lib/gcc/pic32mx/4.5.2/../../../../pic32mx/lib/libpic32.a(vector32.o)
 .data          0x00000000        0x0 /home/gombe/workspace/machikania/origdev/pic32/compiler/pic32-tools/bin/../lib/gcc/pic32mx/4.5.2/../../../../pic32mx/lib/libpic32.a(vector32.o)
 .bss           0x00000000        0x0 /home/gombe/workspace/machikania/origdev/pic32/compiler/pic32-tools/bin/../lib/gcc/pic32mx/4.5.2/../../../../pic32mx/lib/libpic32.a(vector32.o)
 .reginfo       0x00000000       0x18 /home/gombe/workspace/machikania/origdev/pic32/compiler/pic32-tools/bin/../lib/gcc/pic32mx/4.5.2/../../../../pic32mx/lib/libpic32.a(vector32.o)
 .text          0x00000000        0x0 /home/gombe/workspace/machikania/origdev/pic32/compiler/pic32-tools/bin/../lib/gcc/pic32mx/4.5.2/../../../../pic32mx/lib/libpic32.a(vector33.o)
 .data          0x00000000        0x0 /home/gombe/workspace/machikania/origdev/pic32/compiler/pic32-tools/bin/../lib/gcc/pic32mx/4.5.2/../../../../pic32mx/lib/libpic32.a(vector33.o)
 .bss           0x00000000        0x0 /home/gombe/workspace/machikania/origdev/pic32/compiler/pic32-tools/bin/../lib/gcc/pic32mx/4.5.2/../../../../pic32mx/lib/libpic32.a(vector33.o)
 .reginfo       0x00000000       0x18 /home/gombe/workspace/machikania/origdev/pic32/compiler/pic32-tools/bin/../lib/gcc/pic32mx/4.5.2/../../../../pic32mx/lib/libpic32.a(vector33.o)
 .text          0x00000000        0x0 /home/gombe/workspace/machikania/origdev/pic32/compiler/pic32-tools/bin/../lib/gcc/pic32mx/4.5.2/../../../../pic32mx/lib/libpic32.a(vector34.o)
 .data          0x00000000        0x0 /home/gombe/workspace/machikania/origdev/pic32/compiler/pic32-tools/bin/../lib/gcc/pic32mx/4.5.2/../../../../pic32mx/lib/libpic32.a(vector34.o)
 .bss           0x00000000        0x0 /home/gombe/workspace/machikania/origdev/pic32/compiler/pic32-tools/bin/../lib/gcc/pic32mx/4.5.2/../../../../pic32mx/lib/libpic32.a(vector34.o)
 .reginfo       0x00000000       0x18 /home/gombe/workspace/machikania/origdev/pic32/compiler/pic32-tools/bin/../lib/gcc/pic32mx/4.5.2/../../../../pic32mx/lib/libpic32.a(vector34.o)
 .text          0x00000000        0x0 /home/gombe/workspace/machikania/origdev/pic32/compiler/pic32-tools/bin/../lib/gcc/pic32mx/4.5.2/../../../../pic32mx/lib/libpic32.a(vector35.o)
 .data          0x00000000        0x0 /home/gombe/workspace/machikania/origdev/pic32/compiler/pic32-tools/bin/../lib/gcc/pic32mx/4.5.2/../../../../pic32mx/lib/libpic32.a(vector35.o)
 .bss           0x00000000        0x0 /home/gombe/workspace/machikania/origdev/pic32/compiler/pic32-tools/bin/../lib/gcc/pic32mx/4.5.2/../../../../pic32mx/lib/libpic32.a(vector35.o)
 .reginfo       0x00000000       0x18 /home/gombe/workspace/machikania/origdev/pic32/compiler/pic32-tools/bin/../lib/gcc/pic32mx/4.5.2/../../../../pic32mx/lib/libpic32.a(vector35.o)
 .text          0x00000000        0x0 /home/gombe/workspace/machikania/origdev/pic32/compiler/pic32-tools/bin/../lib/gcc/pic32mx/4.5.2/../../../../pic32mx/lib/libpic32.a(vector36.o)
 .data          0x00000000        0x0 /home/gombe/workspace/machikania/origdev/pic32/compiler/pic32-tools/bin/../lib/gcc/pic32mx/4.5.2/../../../../pic32mx/lib/libpic32.a(vector36.o)
 .bss           0x00000000        0x0 /home/gombe/workspace/machikania/origdev/pic32/compiler/pic32-tools/bin/../lib/gcc/pic32mx/4.5.2/../../../../pic32mx/lib/libpic32.a(vector36.o)
 .reginfo       0x00000000       0x18 /home/gombe/workspace/machikania/origdev/pic32/compiler/pic32-tools/bin/../lib/gcc/pic32mx/4.5.2/../../../../pic32mx/lib/libpic32.a(vector36.o)
 .text          0x00000000        0x0 /home/gombe/workspace/machikania/origdev/pic32/compiler/pic32-tools/bin/../lib/gcc/pic32mx/4.5.2/../../../../pic32mx/lib/libpic32.a(vector37.o)
 .data          0x00000000        0x0 /home/gombe/workspace/machikania/origdev/pic32/compiler/pic32-tools/bin/../lib/gcc/pic32mx/4.5.2/../../../../pic32mx/lib/libpic32.a(vector37.o)
 .bss           0x00000000        0x0 /home/gombe/workspace/machikania/origdev/pic32/compiler/pic32-tools/bin/../lib/gcc/pic32mx/4.5.2/../../../../pic32mx/lib/libpic32.a(vector37.o)
 .reginfo       0x00000000       0x18 /home/gombe/workspace/machikania/origdev/pic32/compiler/pic32-tools/bin/../lib/gcc/pic32mx/4.5.2/../../../../pic32mx/lib/libpic32.a(vector37.o)
 .text          0x00000000        0x0 /home/gombe/workspace/machikania/origdev/pic32/compiler/pic32-tools/bin/../lib/gcc/pic32mx/4.5.2/../../../../pic32mx/lib/libpic32.a(vector38.o)
 .data          0x00000000        0x0 /home/gombe/workspace/machikania/origdev/pic32/compiler/pic32-tools/bin/../lib/gcc/pic32mx/4.5.2/../../../../pic32mx/lib/libpic32.a(vector38.o)
 .bss           0x00000000        0x0 /home/gombe/workspace/machikania/origdev/pic32/compiler/pic32-tools/bin/../lib/gcc/pic32mx/4.5.2/../../../../pic32mx/lib/libpic32.a(vector38.o)
 .reginfo       0x00000000       0x18 /home/gombe/workspace/machikania/origdev/pic32/compiler/pic32-tools/bin/../lib/gcc/pic32mx/4.5.2/../../../../pic32mx/lib/libpic32.a(vector38.o)
 .text          0x00000000        0x0 /home/gombe/workspace/machikania/origdev/pic32/compiler/pic32-tools/bin/../lib/gcc/pic32mx/4.5.2/../../../../pic32mx/lib/libpic32.a(vector39.o)
 .data          0x00000000        0x0 /home/gombe/workspace/machikania/origdev/pic32/compiler/pic32-tools/bin/../lib/gcc/pic32mx/4.5.2/../../../../pic32mx/lib/libpic32.a(vector39.o)
 .bss           0x00000000        0x0 /home/gombe/workspace/machikania/origdev/pic32/compiler/pic32-tools/bin/../lib/gcc/pic32mx/4.5.2/../../../../pic32mx/lib/libpic32.a(vector39.o)
 .reginfo       0x00000000       0x18 /home/gombe/workspace/machikania/origdev/pic32/compiler/pic32-tools/bin/../lib/gcc/pic32mx/4.5.2/../../../../pic32mx/lib/libpic32.a(vector39.o)
 .text          0x00000000        0x0 /home/gombe/workspace/machikania/origdev/pic32/compiler/pic32-tools/bin/../lib/gcc/pic32mx/4.5.2/../../../../pic32mx/lib/libpic32.a(vector40.o)
 .data          0x00000000        0x0 /home/gombe/workspace/machikania/origdev/pic32/compiler/pic32-tools/bin/../lib/gcc/pic32mx/4.5.2/../../../../pic32mx/lib/libpic32.a(vector40.o)
 .bss           0x00000000        0x0 /home/gombe/workspace/machikania/origdev/pic32/compiler/pic32-tools/bin/../lib/gcc/pic32mx/4.5.2/../../../../pic32mx/lib/libpic32.a(vector40.o)
 .reginfo       0x00000000       0x18 /home/gombe/workspace/machikania/origdev/pic32/compiler/pic32-tools/bin/../lib/gcc/pic32mx/4.5.2/../../../../pic32mx/lib/libpic32.a(vector40.o)
 .text          0x00000000        0x0 /home/gombe/workspace/machikania/origdev/pic32/compiler/pic32-tools/bin/../lib/gcc/pic32mx/4.5.2/../../../../pic32mx/lib/libpic32.a(vector41.o)
 .data          0x00000000        0x0 /home/gombe/workspace/machikania/origdev/pic32/compiler/pic32-tools/bin/../lib/gcc/pic32mx/4.5.2/../../../../pic32mx/lib/libpic32.a(vector41.o)
 .bss           0x00000000        0x0 /home/gombe/workspace/machikania/origdev/pic32/compiler/pic32-tools/bin/../lib/gcc/pic32mx/4.5.2/../../../../pic32mx/lib/libpic32.a(vector41.o)
 .reginfo       0x00000000       0x18 /home/gombe/workspace/machikania/origdev/pic32/compiler/pic32-tools/bin/../lib/gcc/pic32mx/4.5.2/../../../../pic32mx/lib/libpic32.a(vector41.o)
 .text          0x00000000        0x0 /home/gombe/workspace/machikania/origdev/pic32/compiler/pic32-tools/bin/../lib/gcc/pic32mx/4.5.2/../../../../pic32mx/lib/libpic32.a(vector42.o)
 .data          0x00000000        0x0 /home/gombe/workspace/machikania/origdev/pic32/compiler/pic32-tools/bin/../lib/gcc/pic32mx/4.5.2/../../../../pic32mx/lib/libpic32.a(vector42.o)
 .bss           0x00000000        0x0 /home/gombe/workspace/machikania/origdev/pic32/compiler/pic32-tools/bin/../lib/gcc/pic32mx/4.5.2/../../../../pic32mx/lib/libpic32.a(vector42.o)
 .reginfo       0x00000000       0x18 /home/gombe/workspace/machikania/origdev/pic32/compiler/pic32-tools/bin/../lib/gcc/pic32mx/4.5.2/../../../../pic32mx/lib/libpic32.a(vector42.o)
 .text          0x00000000        0x0 /home/gombe/workspace/machikania/origdev/pic32/compiler/pic32-tools/bin/../lib/gcc/pic32mx/4.5.2/../../../../pic32mx/lib/libpic32.a(vector43.o)
 .data          0x00000000        0x0 /home/gombe/workspace/machikania/origdev/pic32/compiler/pic32-tools/bin/../lib/gcc/pic32mx/4.5.2/../../../../pic32mx/lib/libpic32.a(vector43.o)
 .bss           0x00000000        0x0 /home/gombe/workspace/machikania/origdev/pic32/compiler/pic32-tools/bin/../lib/gcc/pic32mx/4.5.2/../../../../pic32mx/lib/libpic32.a(vector43.o)
 .reginfo       0x00000000       0x18 /home/gombe/workspace/machikania/origdev/pic32/compiler/pic32-tools/bin/../lib/gcc/pic32mx/4.5.2/../../../../pic32mx/lib/libpic32.a(vector43.o)
 .text          0x00000000        0x0 /home/gombe/workspace/machikania/origdev/pic32/compiler/pic32-tools/bin/../lib/gcc/pic32mx/4.5.2/../../../../pic32mx/lib/libpic32.a(vector44.o)
 .data          0x00000000        0x0 /home/gombe/workspace/machikania/origdev/pic32/compiler/pic32-tools/bin/../lib/gcc/pic32mx/4.5.2/../../../../pic32mx/lib/libpic32.a(vector44.o)
 .bss           0x00000000        0x0 /home/gombe/workspace/machikania/origdev/pic32/compiler/pic32-tools/bin/../lib/gcc/pic32mx/4.5.2/../../../../pic32mx/lib/libpic32.a(vector44.o)
 .reginfo       0x00000000       0x18 /home/gombe/workspace/machikania/origdev/pic32/compiler/pic32-tools/bin/../lib/gcc/pic32mx/4.5.2/../../../../pic32mx/lib/libpic32.a(vector44.o)
 .text          0x00000000        0x0 /home/gombe/workspace/machikania/origdev/pic32/compiler/pic32-tools/bin/../lib/gcc/pic32mx/4.5.2/../../../../pic32mx/lib/libpic32.a(vector45.o)
 .data          0x00000000        0x0 /home/gombe/workspace/machikania/origdev/pic32/compiler/pic32-tools/bin/../lib/gcc/pic32mx/4.5.2/../../../../pic32mx/lib/libpic32.a(vector45.o)
 .bss           0x00000000        0x0 /home/gombe/workspace/machikania/origdev/pic32/compiler/pic32-tools/bin/../lib/gcc/pic32mx/4.5.2/../../../../pic32mx/lib/libpic32.a(vector45.o)
 .reginfo       0x00000000       0x18 /home/gombe/workspace/machikania/origdev/pic32/compiler/pic32-tools/bin/../lib/gcc/pic32mx/4.5.2/../../../../pic32mx/lib/libpic32.a(vector45.o)
 .text          0x00000000        0x0 /home/gombe/workspace/machikania/origdev/pic32/compiler/pic32-tools/bin/../lib/gcc/pic32mx/4.5.2/../../../../pic32mx/lib/libpic32.a(vector46.o)
 .data          0x00000000        0x0 /home/gombe/workspace/machikania/origdev/pic32/compiler/pic32-tools/bin/../lib/gcc/pic32mx/4.5.2/../../../../pic32mx/lib/libpic32.a(vector46.o)
 .bss           0x00000000        0x0 /home/gombe/workspace/machikania/origdev/pic32/compiler/pic32-tools/bin/../lib/gcc/pic32mx/4.5.2/../../../../pic32mx/lib/libpic32.a(vector46.o)
 .reginfo       0x00000000       0x18 /home/gombe/workspace/machikania/origdev/pic32/compiler/pic32-tools/bin/../lib/gcc/pic32mx/4.5.2/../../../../pic32mx/lib/libpic32.a(vector46.o)
 .text          0x00000000        0x0 /home/gombe/workspace/machikania/origdev/pic32/compiler/pic32-tools/bin/../lib/gcc/pic32mx/4.5.2/../../../../pic32mx/lib/libpic32.a(vector47.o)
 .data          0x00000000        0x0 /home/gombe/workspace/machikania/origdev/pic32/compiler/pic32-tools/bin/../lib/gcc/pic32mx/4.5.2/../../../../pic32mx/lib/libpic32.a(vector47.o)
 .bss           0x00000000        0x0 /home/gombe/workspace/machikania/origdev/pic32/compiler/pic32-tools/bin/../lib/gcc/pic32mx/4.5.2/../../../../pic32mx/lib/libpic32.a(vector47.o)
 .reginfo       0x00000000       0x18 /home/gombe/workspace/machikania/origdev/pic32/compiler/pic32-tools/bin/../lib/gcc/pic32mx/4.5.2/../../../../pic32mx/lib/libpic32.a(vector47.o)
 .text          0x00000000        0x0 /home/gombe/workspace/machikania/origdev/pic32/compiler/pic32-tools/bin/../lib/gcc/pic32mx/4.5.2/../../../../pic32mx/lib/libpic32.a(vector48.o)
 .data          0x00000000        0x0 /home/gombe/workspace/machikania/origdev/pic32/compiler/pic32-tools/bin/../lib/gcc/pic32mx/4.5.2/../../../../pic32mx/lib/libpic32.a(vector48.o)
 .bss           0x00000000        0x0 /home/gombe/workspace/machikania/origdev/pic32/compiler/pic32-tools/bin/../lib/gcc/pic32mx/4.5.2/../../../../pic32mx/lib/libpic32.a(vector48.o)
 .reginfo       0x00000000       0x18 /home/gombe/workspace/machikania/origdev/pic32/compiler/pic32-tools/bin/../lib/gcc/pic32mx/4.5.2/../../../../pic32mx/lib/libpic32.a(vector48.o)
 .text          0x00000000        0x0 /home/gombe/workspace/machikania/origdev/pic32/compiler/pic32-tools/bin/../lib/gcc/pic32mx/4.5.2/../../../../pic32mx/lib/libpic32.a(vector49.o)
 .data          0x00000000        0x0 /home/gombe/workspace/machikania/origdev/pic32/compiler/pic32-tools/bin/../lib/gcc/pic32mx/4.5.2/../../../../pic32mx/lib/libpic32.a(vector49.o)
 .bss           0x00000000        0x0 /home/gombe/workspace/machikania/origdev/pic32/compiler/pic32-tools/bin/../lib/gcc/pic32mx/4.5.2/../../../../pic32mx/lib/libpic32.a(vector49.o)
 .reginfo       0x00000000       0x18 /home/gombe/workspace/machikania/origdev/pic32/compiler/pic32-tools/bin/../lib/gcc/pic32mx/4.5.2/../../../../pic32mx/lib/libpic32.a(vector49.o)
 .text          0x00000000        0x0 /home/gombe/workspace/machikania/origdev/pic32/compiler/pic32-tools/bin/../lib/gcc/pic32mx/4.5.2/../../../../pic32mx/lib/libpic32.a(vector50.o)
 .data          0x00000000        0x0 /home/gombe/workspace/machikania/origdev/pic32/compiler/pic32-tools/bin/../lib/gcc/pic32mx/4.5.2/../../../../pic32mx/lib/libpic32.a(vector50.o)
 .bss           0x00000000        0x0 /home/gombe/workspace/machikania/origdev/pic32/compiler/pic32-tools/bin/../lib/gcc/pic32mx/4.5.2/../../../../pic32mx/lib/libpic32.a(vector50.o)
 .reginfo       0x00000000       0x18 /home/gombe/workspace/machikania/origdev/pic32/compiler/pic32-tools/bin/../lib/gcc/pic32mx/4.5.2/../../../../pic32mx/lib/libpic32.a(vector50.o)
 .text          0x00000000        0x0 /home/gombe/workspace/machikania/origdev/pic32/compiler/pic32-tools/bin/../lib/gcc/pic32mx/4.5.2/../../../../pic32mx/lib/libpic32.a(vector51.o)
 .data          0x00000000        0x0 /home/gombe/workspace/machikania/origdev/pic32/compiler/pic32-tools/bin/../lib/gcc/pic32mx/4.5.2/../../../../pic32mx/lib/libpic32.a(vector51.o)
 .bss           0x00000000        0x0 /home/gombe/workspace/machikania/origdev/pic32/compiler/pic32-tools/bin/../lib/gcc/pic32mx/4.5.2/../../../../pic32mx/lib/libpic32.a(vector51.o)
 .reginfo       0x00000000       0x18 /home/gombe/workspace/machikania/origdev/pic32/compiler/pic32-tools/bin/../lib/gcc/pic32mx/4.5.2/../../../../pic32mx/lib/libpic32.a(vector51.o)
 .text          0x00000000        0x0 /home/gombe/workspace/machikania/origdev/pic32/compiler/pic32-tools/bin/../lib/gcc/pic32mx/4.5.2/../../../../pic32mx/lib/libpic32.a(vector52.o)
 .data          0x00000000        0x0 /home/gombe/workspace/machikania/origdev/pic32/compiler/pic32-tools/bin/../lib/gcc/pic32mx/4.5.2/../../../../pic32mx/lib/libpic32.a(vector52.o)
 .bss           0x00000000        0x0 /home/gombe/workspace/machikania/origdev/pic32/compiler/pic32-tools/bin/../lib/gcc/pic32mx/4.5.2/../../../../pic32mx/lib/libpic32.a(vector52.o)
 .reginfo       0x00000000       0x18 /home/gombe/workspace/machikania/origdev/pic32/compiler/pic32-tools/bin/../lib/gcc/pic32mx/4.5.2/../../../../pic32mx/lib/libpic32.a(vector52.o)
 .text          0x00000000        0x0 /home/gombe/workspace/machikania/origdev/pic32/compiler/pic32-tools/bin/../lib/gcc/pic32mx/4.5.2/../../../../pic32mx/lib/libpic32.a(vector53.o)
 .data          0x00000000        0x0 /home/gombe/workspace/machikania/origdev/pic32/compiler/pic32-tools/bin/../lib/gcc/pic32mx/4.5.2/../../../../pic32mx/lib/libpic32.a(vector53.o)
 .bss           0x00000000        0x0 /home/gombe/workspace/machikania/origdev/pic32/compiler/pic32-tools/bin/../lib/gcc/pic32mx/4.5.2/../../../../pic32mx/lib/libpic32.a(vector53.o)
 .reginfo       0x00000000       0x18 /home/gombe/workspace/machikania/origdev/pic32/compiler/pic32-tools/bin/../lib/gcc/pic32mx/4.5.2/../../../../pic32mx/lib/libpic32.a(vector53.o)
 .text          0x00000000        0x0 /home/gombe/workspace/machikania/origdev/pic32/compiler/pic32-tools/bin/../lib/gcc/pic32mx/4.5.2/../../../../pic32mx/lib/libpic32.a(vector54.o)
 .data          0x00000000        0x0 /home/gombe/workspace/machikania/origdev/pic32/compiler/pic32-tools/bin/../lib/gcc/pic32mx/4.5.2/../../../../pic32mx/lib/libpic32.a(vector54.o)
 .bss           0x00000000        0x0 /home/gombe/workspace/machikania/origdev/pic32/compiler/pic32-tools/bin/../lib/gcc/pic32mx/4.5.2/../../../../pic32mx/lib/libpic32.a(vector54.o)
 .reginfo       0x00000000       0x18 /home/gombe/workspace/machikania/origdev/pic32/compiler/pic32-tools/bin/../lib/gcc/pic32mx/4.5.2/../../../../pic32mx/lib/libpic32.a(vector54.o)
 .text          0x00000000        0x0 /home/gombe/workspace/machikania/origdev/pic32/compiler/pic32-tools/bin/../lib/gcc/pic32mx/4.5.2/../../../../pic32mx/lib/libpic32.a(vector55.o)
 .data          0x00000000        0x0 /home/gombe/workspace/machikania/origdev/pic32/compiler/pic32-tools/bin/../lib/gcc/pic32mx/4.5.2/../../../../pic32mx/lib/libpic32.a(vector55.o)
 .bss           0x00000000        0x0 /home/gombe/workspace/machikania/origdev/pic32/compiler/pic32-tools/bin/../lib/gcc/pic32mx/4.5.2/../../../../pic32mx/lib/libpic32.a(vector55.o)
 .reginfo       0x00000000       0x18 /home/gombe/workspace/machikania/origdev/pic32/compiler/pic32-tools/bin/../lib/gcc/pic32mx/4.5.2/../../../../pic32mx/lib/libpic32.a(vector55.o)
 .text          0x00000000        0x0 /home/gombe/workspace/machikania/origdev/pic32/compiler/pic32-tools/bin/../lib/gcc/pic32mx/4.5.2/../../../../pic32mx/lib/libpic32.a(vector56.o)
 .data          0x00000000        0x0 /home/gombe/workspace/machikania/origdev/pic32/compiler/pic32-tools/bin/../lib/gcc/pic32mx/4.5.2/../../../../pic32mx/lib/libpic32.a(vector56.o)
 .bss           0x00000000        0x0 /home/gombe/workspace/machikania/origdev/pic32/compiler/pic32-tools/bin/../lib/gcc/pic32mx/4.5.2/../../../../pic32mx/lib/libpic32.a(vector56.o)
 .reginfo       0x00000000       0x18 /home/gombe/workspace/machikania/origdev/pic32/compiler/pic32-tools/bin/../lib/gcc/pic32mx/4.5.2/../../../../pic32mx/lib/libpic32.a(vector56.o)
 .text          0x00000000        0x0 /home/gombe/workspace/machikania/origdev/pic32/compiler/pic32-tools/bin/../lib/gcc/pic32mx/4.5.2/../../../../pic32mx/lib/libpic32.a(vector57.o)
 .data          0x00000000        0x0 /home/gombe/workspace/machikania/origdev/pic32/compiler/pic32-tools/bin/../lib/gcc/pic32mx/4.5.2/../../../../pic32mx/lib/libpic32.a(vector57.o)
 .bss           0x00000000        0x0 /home/gombe/workspace/machikania/origdev/pic32/compiler/pic32-tools/bin/../lib/gcc/pic32mx/4.5.2/../../../../pic32mx/lib/libpic32.a(vector57.o)
 .reginfo       0x00000000       0x18 /home/gombe/workspace/machikania/origdev/pic32/compiler/pic32-tools/bin/../lib/gcc/pic32mx/4.5.2/../../../../pic32mx/lib/libpic32.a(vector57.o)
 .text          0x00000000        0x0 /home/gombe/workspace/machikania/origdev/pic32/compiler/pic32-tools/bin/../lib/gcc/pic32mx/4.5.2/../../../../pic32mx/lib/libpic32.a(vector58.o)
 .data          0x00000000        0x0 /home/gombe/workspace/machikania/origdev/pic32/compiler/pic32-tools/bin/../lib/gcc/pic32mx/4.5.2/../../../../pic32mx/lib/libpic32.a(vector58.o)
 .bss           0x00000000        0x0 /home/gombe/workspace/machikania/origdev/pic32/compiler/pic32-tools/bin/../lib/gcc/pic32mx/4.5.2/../../../../pic32mx/lib/libpic32.a(vector58.o)
 .reginfo       0x00000000       0x18 /home/gombe/workspace/machikania/origdev/pic32/compiler/pic32-tools/bin/../lib/gcc/pic32mx/4.5.2/../../../../pic32mx/lib/libpic32.a(vector58.o)
 .text          0x00000000        0x0 /home/gombe/workspace/machikania/origdev/pic32/compiler/pic32-tools/bin/../lib/gcc/pic32mx/4.5.2/../../../../pic32mx/lib/libpic32.a(vector59.o)
 .data          0x00000000        0x0 /home/gombe/workspace/machikania/origdev/pic32/compiler/pic32-tools/bin/../lib/gcc/pic32mx/4.5.2/../../../../pic32mx/lib/libpic32.a(vector59.o)
 .bss           0x00000000        0x0 /home/gombe/workspace/machikania/origdev/pic32/compiler/pic32-tools/bin/../lib/gcc/pic32mx/4.5.2/../../../../pic32mx/lib/libpic32.a(vector59.o)
 .reginfo       0x00000000       0x18 /home/gombe/workspace/machikania/origdev/pic32/compiler/pic32-tools/bin/../lib/gcc/pic32mx/4.5.2/../../../../pic32mx/lib/libpic32.a(vector59.o)
 .text          0x00000000        0x0 /home/gombe/workspace/machikania/origdev/pic32/compiler/pic32-tools/bin/../lib/gcc/pic32mx/4.5.2/../../../../pic32mx/lib/libpic32.a(vector60.o)
 .data          0x00000000        0x0 /home/gombe/workspace/machikania/origdev/pic32/compiler/pic32-tools/bin/../lib/gcc/pic32mx/4.5.2/../../../../pic32mx/lib/libpic32.a(vector60.o)
 .bss           0x00000000        0x0 /home/gombe/workspace/machikania/origdev/pic32/compiler/pic32-tools/bin/../lib/gcc/pic32mx/4.5.2/../../../../pic32mx/lib/libpic32.a(vector60.o)
 .reginfo       0x00000000       0x18 /home/gombe/workspace/machikania/origdev/pic32/compiler/pic32-tools/bin/../lib/gcc/pic32mx/4.5.2/../../../../pic32mx/lib/libpic32.a(vector60.o)
 .text          0x00000000        0x0 /home/gombe/workspace/machikania/origdev/pic32/compiler/pic32-tools/bin/../lib/gcc/pic32mx/4.5.2/../../../../pic32mx/lib/libpic32.a(vector61.o)
 .data          0x00000000        0x0 /home/gombe/workspace/machikania/origdev/pic32/compiler/pic32-tools/bin/../lib/gcc/pic32mx/4.5.2/../../../../pic32mx/lib/libpic32.a(vector61.o)
 .bss           0x00000000        0x0 /home/gombe/workspace/machikania/origdev/pic32/compiler/pic32-tools/bin/../lib/gcc/pic32mx/4.5.2/../../../../pic32mx/lib/libpic32.a(vector61.o)
 .reginfo       0x00000000       0x18 /home/gombe/workspace/machikania/origdev/pic32/compiler/pic32-tools/bin/../lib/gcc/pic32mx/4.5.2/../../../../pic32mx/lib/libpic32.a(vector61.o)
 .text          0x00000000        0x0 /home/gombe/workspace/machikania/origdev/pic32/compiler/pic32-tools/bin/../lib/gcc/pic32mx/4.5.2/../../../../pic32mx/lib/libpic32.a(vector62.o)
 .data          0x00000000        0x0 /home/gombe/workspace/machikania/origdev/pic32/compiler/pic32-tools/bin/../lib/gcc/pic32mx/4.5.2/../../../../pic32mx/lib/libpic32.a(vector62.o)
 .bss           0x00000000        0x0 /home/gombe/workspace/machikania/origdev/pic32/compiler/pic32-tools/bin/../lib/gcc/pic32mx/4.5.2/../../../../pic32mx/lib/libpic32.a(vector62.o)
 .reginfo       0x00000000       0x18 /home/gombe/workspace/machikania/origdev/pic32/compiler/pic32-tools/bin/../lib/gcc/pic32mx/4.5.2/../../../../pic32mx/lib/libpic32.a(vector62.o)
 .text          0x00000000        0x0 /home/gombe/workspace/machikania/origdev/pic32/compiler/pic32-tools/bin/../lib/gcc/pic32mx/4.5.2/../../../../pic32mx/lib/libpic32.a(vector63.o)
 .data          0x00000000        0x0 /home/gombe/workspace/machikania/origdev/pic32/compiler/pic32-tools/bin/../lib/gcc/pic32mx/4.5.2/../../../../pic32mx/lib/libpic32.a(vector63.o)
 .bss           0x00000000        0x0 /home/gombe/workspace/machikania/origdev/pic32/compiler/pic32-tools/bin/../lib/gcc/pic32mx/4.5.2/../../../../pic32mx/lib/libpic32.a(vector63.o)
 .reginfo       0x00000000       0x18 /home/gombe/workspace/machikania/origdev/pic32/compiler/pic32-tools/bin/../lib/gcc/pic32mx/4.5.2/../../../../pic32mx/lib/libpic32.a(vector63.o)
 .text          0x00000000        0x0 /home/gombe/workspace/machikania/origdev/pic32/compiler/pic32-tools/bin/../lib/gcc/pic32mx/4.5.2/../../../../pic32mx/lib/libpic32.a(_mon_putc.o)
 .data          0x00000000        0x0 /home/gombe/workspace/machikania/origdev/pic32/compiler/pic32-tools/bin/../lib/gcc/pic32mx/4.5.2/../../../../pic32mx/lib/libpic32.a(_mon_putc.o)
 .bss           0x00000000        0x0 /home/gombe/workspace/machikania/origdev/pic32/compiler/pic32-tools/bin/../lib/gcc/pic32mx/4.5.2/../../../../pic32mx/lib/libpic32.a(_mon_putc.o)
 .reginfo       0x00000000       0x18 /home/gombe/workspace/machikania/origdev/pic32/compiler/pic32-tools/bin/../lib/gcc/pic32mx/4.5.2/../../../../pic32mx/lib/libpic32.a(_mon_putc.o)
 .text          0x00000000        0x0 /home/gombe/workspace/machikania/origdev/pic32/compiler/pic32-tools/bin/../lib/gcc/pic32mx/4.5.2/../../../../pic32mx/lib/libpic32.a(defaultinterrupt.o)
 .data          0x00000000        0x0 /home/gombe/workspace/machikania/origdev/pic32/compiler/pic32-tools/bin/../lib/gcc/pic32mx/4.5.2/../../../../pic32mx/lib/libpic32.a(defaultinterrupt.o)
 .bss           0x00000000        0x0 /home/gombe/workspace/machikania/origdev/pic32/compiler/pic32-tools/bin/../lib/gcc/pic32mx/4.5.2/../../../../pic32mx/lib/libpic32.a(defaultinterrupt.o)
 .reginfo       0x00000000       0x18 /home/gombe/workspace/machikania/origdev/pic32/compiler/pic32-tools/bin/../lib/gcc/pic32mx/4.5.2/../../../../pic32mx/lib/libpic32.a(defaultinterrupt.o)
 .data          0x00000000        0x0 /home/gombe/workspace/machikania/origdev/pic32/compiler/pic32-tools/bin/../lib/gcc/pic32mx/4.5.2/libgcc.a(_udivdi3.o)
 .bss           0x00000000        0x0 /home/gombe/workspace/machikania/origdev/pic32/compiler/pic32-tools/bin/../lib/gcc/pic32mx/4.5.2/libgcc.a(_udivdi3.o)
 .reginfo       0x00000000       0x18 /home/gombe/workspace/machikania/origdev/pic32/compiler/pic32-tools/bin/../lib/gcc/pic32mx/4.5.2/libgcc.a(_udivdi3.o)
 .data          0x00000000        0x0 /home/gombe/workspace/machikania/origdev/pic32/compiler/pic32-tools/bin/../lib/gcc/pic32mx/4.5.2/libgcc.a(_umoddi3.o)
 .bss           0x00000000        0x0 /home/gombe/workspace/machikania/origdev/pic32/compiler/pic32-tools/bin/../lib/gcc/pic32mx/4.5.2/libgcc.a(_umoddi3.o)
 .reginfo       0x00000000       0x18 /home/gombe/workspace/machikania/origdev/pic32/compiler/pic32-tools/bin/../lib/gcc/pic32mx/4.5.2/libgcc.a(_umoddi3.o)
 .data          0x00000000        0x0 /home/gombe/workspace/machikania/origdev/pic32/compiler/pic32-tools/bin/../lib/gcc/pic32mx/4.5.2/libgcc.a(ledf2.o)
 .bss           0x00000000        0x0 /home/gombe/workspace/machikania/origdev/pic32/compiler/pic32-tools/bin/../lib/gcc/pic32mx/4.5.2/libgcc.a(ledf2.o)
 .reginfo       0x00000000       0x18 /home/gombe/workspace/machikania/origdev/pic32/compiler/pic32-tools/bin/../lib/gcc/pic32mx/4.5.2/libgcc.a(ledf2.o)
 .text          0x00000000        0x0 /home/gombe/workspace/machikania/origdev/pic32/compiler/pic32-tools/bin/../lib/gcc/pic32mx/4.5.2/../../../../pic32mx/lib/libmchp_peripheral_32MX250F128B.a(osc_config_lib.o)
 .data          0x00000000        0x0 /home/gombe/workspace/machikania/origdev/pic32/compiler/pic32-tools/bin/../lib/gcc/pic32mx/4.5.2/../../../../pic32mx/lib/libmchp_peripheral_32MX250F128B.a(osc_config_lib.o)
 .bss           0x00000000        0x0 /home/gombe/workspace/machikania/origdev/pic32/compiler/pic32-tools/bin/../lib/gcc/pic32mx/4.5.2/../../../../pic32mx/lib/libmchp_peripheral_32MX250F128B.a(osc_config_lib.o)
 .reginfo       0x00000000       0x18 /home/gombe/workspace/machikania/origdev/pic32/compiler/pic32-tools/bin/../lib/gcc/pic32mx/4.5.2/../../../../pic32mx/lib/libmchp_peripheral_32MX250F128B.a(osc_config_lib.o)
 .pdr           0x00000000       0x20 /home/gombe/workspace/machikania/origdev/pic32/compiler/pic32-tools/bin/../lib/gcc/pic32mx/4.5.2/../../../../pic32mx/lib/libmchp_peripheral_32MX250F128B.a(osc_config_lib.o)
 .text          0x00000000        0x0 /home/gombe/workspace/machikania/origdev/pic32/compiler/pic32-tools/bin/../lib/gcc/pic32mx/4.5.2/../../../../pic32mx/lib/libmchp_peripheral_32MX250F128B.a(int_disable_interrupts_lib.o)
 .data          0x00000000        0x0 /home/gombe/workspace/machikania/origdev/pic32/compiler/pic32-tools/bin/../lib/gcc/pic32mx/4.5.2/../../../../pic32mx/lib/libmchp_peripheral_32MX250F128B.a(int_disable_interrupts_lib.o)
 .bss           0x00000000        0x0 /home/gombe/workspace/machikania/origdev/pic32/compiler/pic32-tools/bin/../lib/gcc/pic32mx/4.5.2/../../../../pic32mx/lib/libmchp_peripheral_32MX250F128B.a(int_disable_interrupts_lib.o)
 .reginfo       0x00000000       0x18 /home/gombe/workspace/machikania/origdev/pic32/compiler/pic32-tools/bin/../lib/gcc/pic32mx/4.5.2/../../../../pic32mx/lib/libmchp_peripheral_32MX250F128B.a(int_disable_interrupts_lib.o)
 .pdr           0x00000000       0x20 /home/gombe/workspace/machikania/origdev/pic32/compiler/pic32-tools/bin/../lib/gcc/pic32mx/4.5.2/../../../../pic32mx/lib/libmchp_peripheral_32MX250F128B.a(int_disable_interrupts_lib.o)
 .text          0x00000000        0x0 /home/gombe/workspace/machikania/origdev/pic32/compiler/pic32-tools/bin/../lib/gcc/pic32mx/4.5.2/../../../../pic32mx/lib/libmchp_peripheral_32MX250F128B.a(int_restore_interrupts_lib.o)
 .data          0x00000000        0x0 /home/gombe/workspace/machikania/origdev/pic32/compiler/pic32-tools/bin/../lib/gcc/pic32mx/4.5.2/../../../../pic32mx/lib/libmchp_peripheral_32MX250F128B.a(int_restore_interrupts_lib.o)
 .bss           0x00000000        0x0 /home/gombe/workspace/machikania/origdev/pic32/compiler/pic32-tools/bin/../lib/gcc/pic32mx/4.5.2/../../../../pic32mx/lib/libmchp_peripheral_32MX250F128B.a(int_restore_interrupts_lib.o)
 .reginfo       0x00000000       0x18 /home/gombe/workspace/machikania/origdev/pic32/compiler/pic32-tools/bin/../lib/gcc/pic32mx/4.5.2/../../../../pic32mx/lib/libmchp_peripheral_32MX250F128B.a(int_restore_interrupts_lib.o)
 .pdr           0x00000000       0x20 /home/gombe/workspace/machikania/origdev/pic32/compiler/pic32-tools/bin/../lib/gcc/pic32mx/4.5.2/../../../../pic32mx/lib/libmchp_peripheral_32MX250F128B.a(int_restore_interrupts_lib.o)
 .text          0x00000000        0x0 /home/gombe/workspace/machikania/origdev/pic32/compiler/pic32-tools/bin/../lib/gcc/pic32mx/4.5.2/../../../../pic32mx/lib/libmchp_peripheral_32MX250F128B.a(int_enable_mv_int_lib.o)
 .data          0x00000000        0x0 /home/gombe/workspace/machikania/origdev/pic32/compiler/pic32-tools/bin/../lib/gcc/pic32mx/4.5.2/../../../../pic32mx/lib/libmchp_peripheral_32MX250F128B.a(int_enable_mv_int_lib.o)
 .bss           0x00000000        0x0 /home/gombe/workspace/machikania/origdev/pic32/compiler/pic32-tools/bin/../lib/gcc/pic32mx/4.5.2/../../../../pic32mx/lib/libmchp_peripheral_32MX250F128B.a(int_enable_mv_int_lib.o)
 .reginfo       0x00000000       0x18 /home/gombe/workspace/machikania/origdev/pic32/compiler/pic32-tools/bin/../lib/gcc/pic32mx/4.5.2/../../../../pic32mx/lib/libmchp_peripheral_32MX250F128B.a(int_enable_mv_int_lib.o)
 .pdr           0x00000000       0x20 /home/gombe/workspace/machikania/origdev/pic32/compiler/pic32-tools/bin/../lib/gcc/pic32mx/4.5.2/../../../../pic32mx/lib/libmchp_peripheral_32MX250F128B.a(int_enable_mv_int_lib.o)
 .text          0x00000000        0x0 /home/gombe/workspace/machikania/origdev/pic32/compiler/pic32-tools/bin/../lib/gcc/pic32mx/4.5.2/../../../../pic32mx/lib/libmchp_peripheral_32MX250F128B.a(spi_getc_spi2_lib_legacy.o)
 .data          0x00000000        0x0 /home/gombe/workspace/machikania/origdev/pic32/compiler/pic32-tools/bin/../lib/gcc/pic32mx/4.5.2/../../../../pic32mx/lib/libmchp_peripheral_32MX250F128B.a(spi_getc_spi2_lib_legacy.o)
 .bss           0x00000000        0x0 /home/gombe/workspace/machikania/origdev/pic32/compiler/pic32-tools/bin/../lib/gcc/pic32mx/4.5.2/../../../../pic32mx/lib/libmchp_peripheral_32MX250F128B.a(spi_getc_spi2_lib_legacy.o)
 .reginfo       0x00000000       0x18 /home/gombe/workspace/machikania/origdev/pic32/compiler/pic32-tools/bin/../lib/gcc/pic32mx/4.5.2/../../../../pic32mx/lib/libmchp_peripheral_32MX250F128B.a(spi_getc_spi2_lib_legacy.o)
 .pdr           0x00000000       0x20 /home/gombe/workspace/machikania/origdev/pic32/compiler/pic32-tools/bin/../lib/gcc/pic32mx/4.5.2/../../../../pic32mx/lib/libmchp_peripheral_32MX250F128B.a(spi_getc_spi2_lib_legacy.o)
 .text.getcSPI2
                0x00000000       0x20 /home/gombe/workspace/machikania/origdev/pic32/compiler/pic32-tools/bin/../lib/gcc/pic32mx/4.5.2/../../../../pic32mx/lib/libmchp_peripheral_32MX250F128B.a(spi_getc_spi2_lib_legacy.o)
 .text          0x00000000        0x0 /home/gombe/workspace/machikania/origdev/pic32/compiler/pic32-tools/bin/../lib/gcc/pic32mx/4.5.2/../../../../pic32mx/lib/libmchp_peripheral_32MX250F128B.a(spi_open_spi2_lib_legacy.o)
 .data          0x00000000        0x0 /home/gombe/workspace/machikania/origdev/pic32/compiler/pic32-tools/bin/../lib/gcc/pic32mx/4.5.2/../../../../pic32mx/lib/libmchp_peripheral_32MX250F128B.a(spi_open_spi2_lib_legacy.o)
 .bss           0x00000000        0x0 /home/gombe/workspace/machikania/origdev/pic32/compiler/pic32-tools/bin/../lib/gcc/pic32mx/4.5.2/../../../../pic32mx/lib/libmchp_peripheral_32MX250F128B.a(spi_open_spi2_lib_legacy.o)
 .reginfo       0x00000000       0x18 /home/gombe/workspace/machikania/origdev/pic32/compiler/pic32-tools/bin/../lib/gcc/pic32mx/4.5.2/../../../../pic32mx/lib/libmchp_peripheral_32MX250F128B.a(spi_open_spi2_lib_legacy.o)
 .pdr           0x00000000       0x20 /home/gombe/workspace/machikania/origdev/pic32/compiler/pic32-tools/bin/../lib/gcc/pic32mx/4.5.2/../../../../pic32mx/lib/libmchp_peripheral_32MX250F128B.a(spi_open_spi2_lib_legacy.o)
 .text.OpenSPI2
                0x00000000       0x60 /home/gombe/workspace/machikania/origdev/pic32/compiler/pic32-tools/bin/../lib/gcc/pic32mx/4.5.2/../../../../pic32mx/lib/libmchp_peripheral_32MX250F128B.a(spi_open_spi2_lib_legacy.o)
 .text          0x00000000        0x0 /home/gombe/workspace/machikania/origdev/pic32/compiler/pic32-tools/bin/../lib/gcc/pic32mx/4.5.2/../../../../pic32mx/lib/libmchp_peripheral_32MX250F128B.a(spi_brg_tbl_lib_legacy.o)
 .data          0x00000000        0x0 /home/gombe/workspace/machikania/origdev/pic32/compiler/pic32-tools/bin/../lib/gcc/pic32mx/4.5.2/../../../../pic32mx/lib/libmchp_peripheral_32MX250F128B.a(spi_brg_tbl_lib_legacy.o)
 .bss           0x00000000        0x0 /home/gombe/workspace/machikania/origdev/pic32/compiler/pic32-tools/bin/../lib/gcc/pic32mx/4.5.2/../../../../pic32mx/lib/libmchp_peripheral_32MX250F128B.a(spi_brg_tbl_lib_legacy.o)
 .reginfo       0x00000000       0x18 /home/gombe/workspace/machikania/origdev/pic32/compiler/pic32-tools/bin/../lib/gcc/pic32mx/4.5.2/../../../../pic32mx/lib/libmchp_peripheral_32MX250F128B.a(spi_brg_tbl_lib_legacy.o)
 .pdr           0x00000000        0x0 /home/gombe/workspace/machikania/origdev/pic32/compiler/pic32-tools/bin/../lib/gcc/pic32mx/4.5.2/../../../../pic32mx/lib/libmchp_peripheral_32MX250F128B.a(spi_brg_tbl_lib_legacy.o)
 .rodata        0x00000000       0x80 /home/gombe/workspace/machikania/origdev/pic32/compiler/pic32-tools/bin/../lib/gcc/pic32mx/4.5.2/../../../../pic32mx/lib/libmchp_peripheral_32MX250F128B.a(spi_brg_tbl_lib_legacy.o)
 .text          0x00000000        0x0 /home/gombe/workspace/machikania/origdev/pic32/compiler/pic32-tools/bin/../lib/gcc/pic32mx/4.5.2/../../../../pic32mx/lib/libmchp_peripheral_32MX250F128B.a(dma_chn_clr_ev_flags_lib.o)
 .data          0x00000000        0x0 /home/gombe/workspace/machikania/origdev/pic32/compiler/pic32-tools/bin/../lib/gcc/pic32mx/4.5.2/../../../../pic32mx/lib/libmchp_peripheral_32MX250F128B.a(dma_chn_clr_ev_flags_lib.o)
 .bss           0x00000000        0x0 /home/gombe/workspace/machikania/origdev/pic32/compiler/pic32-tools/bin/../lib/gcc/pic32mx/4.5.2/../../../../pic32mx/lib/libmchp_peripheral_32MX250F128B.a(dma_chn_clr_ev_flags_lib.o)
 .reginfo       0x00000000       0x18 /home/gombe/workspace/machikania/origdev/pic32/compiler/pic32-tools/bin/../lib/gcc/pic32mx/4.5.2/../../../../pic32mx/lib/libmchp_peripheral_32MX250F128B.a(dma_chn_clr_ev_flags_lib.o)
 .pdr           0x00000000       0x20 /home/gombe/workspace/machikania/origdev/pic32/compiler/pic32-tools/bin/../lib/gcc/pic32mx/4.5.2/../../../../pic32mx/lib/libmchp_peripheral_32MX250F128B.a(dma_chn_clr_ev_flags_lib.o)
 .text.DmaChnClrEvFlags
                0x00000000       0x20 /home/gombe/workspace/machikania/origdev/pic32/compiler/pic32-tools/bin/../lib/gcc/pic32mx/4.5.2/../../../../pic32mx/lib/libmchp_peripheral_32MX250F128B.a(dma_chn_clr_ev_flags_lib.o)
 .text          0x00000000        0x0 /home/gombe/workspace/machikania/origdev/pic32/compiler/pic32-tools/bin/../lib/gcc/pic32mx/4.5.2/../../../../pic32mx/lib/libmchp_peripheral_32MX250F128B.a(dma_chn_open_lib.o)
 .data          0x00000000        0x0 /home/gombe/workspace/machikania/origdev/pic32/compiler/pic32-tools/bin/../lib/gcc/pic32mx/4.5.2/../../../../pic32mx/lib/libmchp_peripheral_32MX250F128B.a(dma_chn_open_lib.o)
 .bss           0x00000000        0x0 /home/gombe/workspace/machikania/origdev/pic32/compiler/pic32-tools/bin/../lib/gcc/pic32mx/4.5.2/../../../../pic32mx/lib/libmchp_peripheral_32MX250F128B.a(dma_chn_open_lib.o)
 .reginfo       0x00000000       0x18 /home/gombe/workspace/machikania/origdev/pic32/compiler/pic32-tools/bin/../lib/gcc/pic32mx/4.5.2/../../../../pic32mx/lib/libmchp_peripheral_32MX250F128B.a(dma_chn_open_lib.o)
 .pdr           0x00000000       0x20 /home/gombe/workspace/machikania/origdev/pic32/compiler/pic32-tools/bin/../lib/gcc/pic32mx/4.5.2/../../../../pic32mx/lib/libmchp_peripheral_32MX250F128B.a(dma_chn_open_lib.o)
 .text.DmaChnOpen
                0x00000000       0xec /home/gombe/workspace/machikania/origdev/pic32/compiler/pic32-tools/bin/../lib/gcc/pic32mx/4.5.2/../../../../pic32mx/lib/libmchp_peripheral_32MX250F128B.a(dma_chn_open_lib.o)
 .text          0x00000000        0x0 /home/gombe/workspace/machikania/origdev/pic32/compiler/pic32-tools/bin/../lib/gcc/pic32mx/4.5.2/../../../../pic32mx/lib/libmchp_peripheral_32MX250F128B.a(dma_chn_enable_lib.o)
 .data          0x00000000        0x0 /home/gombe/workspace/machikania/origdev/pic32/compiler/pic32-tools/bin/../lib/gcc/pic32mx/4.5.2/../../../../pic32mx/lib/libmchp_peripheral_32MX250F128B.a(dma_chn_enable_lib.o)
 .bss           0x00000000        0x0 /home/gombe/workspace/machikania/origdev/pic32/compiler/pic32-tools/bin/../lib/gcc/pic32mx/4.5.2/../../../../pic32mx/lib/libmchp_peripheral_32MX250F128B.a(dma_chn_enable_lib.o)
 .reginfo       0x00000000       0x18 /home/gombe/workspace/machikania/origdev/pic32/compiler/pic32-tools/bin/../lib/gcc/pic32mx/4.5.2/../../../../pic32mx/lib/libmchp_peripheral_32MX250F128B.a(dma_chn_enable_lib.o)
 .pdr           0x00000000       0x20 /home/gombe/workspace/machikania/origdev/pic32/compiler/pic32-tools/bin/../lib/gcc/pic32mx/4.5.2/../../../../pic32mx/lib/libmchp_peripheral_32MX250F128B.a(dma_chn_enable_lib.o)
 .text.DmaChnEnable
                0x00000000       0x24 /home/gombe/workspace/machikania/origdev/pic32/compiler/pic32-tools/bin/../lib/gcc/pic32mx/4.5.2/../../../../pic32mx/lib/libmchp_peripheral_32MX250F128B.a(dma_chn_enable_lib.o)
 .text          0x00000000        0x0 /home/gombe/workspace/machikania/origdev/pic32/compiler/pic32-tools/bin/../lib/gcc/pic32mx/4.5.2/../../../../pic32mx/lib/libmchp_peripheral_32MX250F128B.a(dma_chn_get_ev_flags_lib.o)
 .data          0x00000000        0x0 /home/gombe/workspace/machikania/origdev/pic32/compiler/pic32-tools/bin/../lib/gcc/pic32mx/4.5.2/../../../../pic32mx/lib/libmchp_peripheral_32MX250F128B.a(dma_chn_get_ev_flags_lib.o)
 .bss           0x00000000        0x0 /home/gombe/workspace/machikania/origdev/pic32/compiler/pic32-tools/bin/../lib/gcc/pic32mx/4.5.2/../../../../pic32mx/lib/libmchp_peripheral_32MX250F128B.a(dma_chn_get_ev_flags_lib.o)
 .reginfo       0x00000000       0x18 /home/gombe/workspace/machikania/origdev/pic32/compiler/pic32-tools/bin/../lib/gcc/pic32mx/4.5.2/../../../../pic32mx/lib/libmchp_peripheral_32MX250F128B.a(dma_chn_get_ev_flags_lib.o)
 .pdr           0x00000000       0x20 /home/gombe/workspace/machikania/origdev/pic32/compiler/pic32-tools/bin/../lib/gcc/pic32mx/4.5.2/../../../../pic32mx/lib/libmchp_peripheral_32MX250F128B.a(dma_chn_get_ev_flags_lib.o)
 .text.DmaChnGetEvFlags
                0x00000000       0x20 /home/gombe/workspace/machikania/origdev/pic32/compiler/pic32-tools/bin/../lib/gcc/pic32mx/4.5.2/../../../../pic32mx/lib/libmchp_peripheral_32MX250F128B.a(dma_chn_get_ev_flags_lib.o)
 .text          0x00000000        0x0 /home/gombe/workspace/machikania/origdev/pic32/compiler/pic32-tools/bin/../lib/gcc/pic32mx/4.5.2/../../../../pic32mx/lib/libmchp_peripheral_32MX250F128B.a(dma_chn_write_event_control_flags_lib.o)
 .data          0x00000000        0x0 /home/gombe/workspace/machikania/origdev/pic32/compiler/pic32-tools/bin/../lib/gcc/pic32mx/4.5.2/../../../../pic32mx/lib/libmchp_peripheral_32MX250F128B.a(dma_chn_write_event_control_flags_lib.o)
 .bss           0x00000000        0x0 /home/gombe/workspace/machikania/origdev/pic32/compiler/pic32-tools/bin/../lib/gcc/pic32mx/4.5.2/../../../../pic32mx/lib/libmchp_peripheral_32MX250F128B.a(dma_chn_write_event_control_flags_lib.o)
 .reginfo       0x00000000       0x18 /home/gombe/workspace/machikania/origdev/pic32/compiler/pic32-tools/bin/../lib/gcc/pic32mx/4.5.2/../../../../pic32mx/lib/libmchp_peripheral_32MX250F128B.a(dma_chn_write_event_control_flags_lib.o)
 .pdr           0x00000000       0x20 /home/gombe/workspace/machikania/origdev/pic32/compiler/pic32-tools/bin/../lib/gcc/pic32mx/4.5.2/../../../../pic32mx/lib/libmchp_peripheral_32MX250F128B.a(dma_chn_write_event_control_flags_lib.o)
 .text.DmaChnWriteEventControlFlags
                0x00000000       0x2c /home/gombe/workspace/machikania/origdev/pic32/compiler/pic32-tools/bin/../lib/gcc/pic32mx/4.5.2/../../../../pic32mx/lib/libmchp_peripheral_32MX250F128B.a(dma_chn_write_event_control_flags_lib.o)
 .text          0x00000000        0x0 /home/gombe/workspace/machikania/origdev/pic32/compiler/pic32-tools/bin/../lib/gcc/pic32mx/4.5.2/../../../../pic32mx/lib/libmchp_peripheral_32MX250F128B.a(dma_chn_set_txfer_lib.o)
 .data          0x00000000        0x0 /home/gombe/workspace/machikania/origdev/pic32/compiler/pic32-tools/bin/../lib/gcc/pic32mx/4.5.2/../../../../pic32mx/lib/libmchp_peripheral_32MX250F128B.a(dma_chn_set_txfer_lib.o)
 .bss           0x00000000        0x0 /home/gombe/workspace/machikania/origdev/pic32/compiler/pic32-tools/bin/../lib/gcc/pic32mx/4.5.2/../../../../pic32mx/lib/libmchp_peripheral_32MX250F128B.a(dma_chn_set_txfer_lib.o)
 .reginfo       0x00000000       0x18 /home/gombe/workspace/machikania/origdev/pic32/compiler/pic32-tools/bin/../lib/gcc/pic32mx/4.5.2/../../../../pic32mx/lib/libmchp_peripheral_32MX250F128B.a(dma_chn_set_txfer_lib.o)
 .pdr           0x00000000       0x20 /home/gombe/workspace/machikania/origdev/pic32/compiler/pic32-tools/bin/../lib/gcc/pic32mx/4.5.2/../../../../pic32mx/lib/libmchp_peripheral_32MX250F128B.a(dma_chn_set_txfer_lib.o)
 .text.DmaChnSetTxfer
                0x00000000       0x98 /home/gombe/workspace/machikania/origdev/pic32/compiler/pic32-tools/bin/../lib/gcc/pic32mx/4.5.2/../../../../pic32mx/lib/libmchp_peripheral_32MX250F128B.a(dma_chn_set_txfer_lib.o)
 .text          0x00000000        0x0 /home/gombe/workspace/machikania/origdev/pic32/compiler/pic32-tools/bin/../lib/gcc/pic32mx/4.5.2/../../../../pic32mx/lib/libmchp_peripheral_32MX250F128B.a(dma_chn_start_txfer_lib.o)
 .data          0x00000000        0x0 /home/gombe/workspace/machikania/origdev/pic32/compiler/pic32-tools/bin/../lib/gcc/pic32mx/4.5.2/../../../../pic32mx/lib/libmchp_peripheral_32MX250F128B.a(dma_chn_start_txfer_lib.o)
 .bss           0x00000000        0x0 /home/gombe/workspace/machikania/origdev/pic32/compiler/pic32-tools/bin/../lib/gcc/pic32mx/4.5.2/../../../../pic32mx/lib/libmchp_peripheral_32MX250F128B.a(dma_chn_start_txfer_lib.o)
 .reginfo       0x00000000       0x18 /home/gombe/workspace/machikania/origdev/pic32/compiler/pic32-tools/bin/../lib/gcc/pic32mx/4.5.2/../../../../pic32mx/lib/libmchp_peripheral_32MX250F128B.a(dma_chn_start_txfer_lib.o)
 .pdr           0x00000000       0x20 /home/gombe/workspace/machikania/origdev/pic32/compiler/pic32-tools/bin/../lib/gcc/pic32mx/4.5.2/../../../../pic32mx/lib/libmchp_peripheral_32MX250F128B.a(dma_chn_start_txfer_lib.o)
 .text.DmaChnStartTxfer
                0x00000000      0x124 /home/gombe/workspace/machikania/origdev/pic32/compiler/pic32-tools/bin/../lib/gcc/pic32mx/4.5.2/../../../../pic32mx/lib/libmchp_peripheral_32MX250F128B.a(dma_chn_start_txfer_lib.o)
 .text          0x00000000        0x0 /home/gombe/workspace/machikania/origdev/pic32/compiler/pic32-tools/bin/../lib/gcc/pic32mx/4.5.2/../../../../pic32mx/lib/libmchp_peripheral_32MX250F128B.a(dma_reg_map_tbl_lib.o)
 .data          0x00000000        0x0 /home/gombe/workspace/machikania/origdev/pic32/compiler/pic32-tools/bin/../lib/gcc/pic32mx/4.5.2/../../../../pic32mx/lib/libmchp_peripheral_32MX250F128B.a(dma_reg_map_tbl_lib.o)
 .bss           0x00000000        0x0 /home/gombe/workspace/machikania/origdev/pic32/compiler/pic32-tools/bin/../lib/gcc/pic32mx/4.5.2/../../../../pic32mx/lib/libmchp_peripheral_32MX250F128B.a(dma_reg_map_tbl_lib.o)
 .reginfo       0x00000000       0x18 /home/gombe/workspace/machikania/origdev/pic32/compiler/pic32-tools/bin/../lib/gcc/pic32mx/4.5.2/../../../../pic32mx/lib/libmchp_peripheral_32MX250F128B.a(dma_reg_map_tbl_lib.o)
 .pdr           0x00000000        0x0 /home/gombe/workspace/machikania/origdev/pic32/compiler/pic32-tools/bin/../lib/gcc/pic32mx/4.5.2/../../../../pic32mx/lib/libmchp_peripheral_32MX250F128B.a(dma_reg_map_tbl_lib.o)
 .rodata        0x00000000        0x4 /home/gombe/workspace/machikania/origdev/pic32/compiler/pic32-tools/bin/../lib/gcc/pic32mx/4.5.2/../../../../pic32mx/lib/libmchp_peripheral_32MX250F128B.a(dma_reg_map_tbl_lib.o)
 .text          0x00000000        0x0 /home/gombe/workspace/machikania/origdev/pic32/compiler/pic32-tools/bin/../lib/gcc/pic32mx/4.5.2/../../../../pic32mx/lib/libmchp_peripheral_32MX250F128B.a(int_enable_interrupts_lib.o)
 .data          0x00000000        0x0 /home/gombe/workspace/machikania/origdev/pic32/compiler/pic32-tools/bin/../lib/gcc/pic32mx/4.5.2/../../../../pic32mx/lib/libmchp_peripheral_32MX250F128B.a(int_enable_interrupts_lib.o)
 .bss           0x00000000        0x0 /home/gombe/workspace/machikania/origdev/pic32/compiler/pic32-tools/bin/../lib/gcc/pic32mx/4.5.2/../../../../pic32mx/lib/libmchp_peripheral_32MX250F128B.a(int_enable_interrupts_lib.o)
 .reginfo       0x00000000       0x18 /home/gombe/workspace/machikania/origdev/pic32/compiler/pic32-tools/bin/../lib/gcc/pic32mx/4.5.2/../../../../pic32mx/lib/libmchp_peripheral_32MX250F128B.a(int_enable_interrupts_lib.o)
 .pdr           0x00000000       0x20 /home/gombe/workspace/machikania/origdev/pic32/compiler/pic32-tools/bin/../lib/gcc/pic32mx/4.5.2/../../../../pic32mx/lib/libmchp_peripheral_32MX250F128B.a(int_enable_interrupts_lib.o)
 .text          0x00000000        0x0 /home/gombe/workspace/machikania/origdev/pic32/compiler/pic32-tools/bin/../lib/gcc/pic32mx/4.5.2/../../../../pic32mx/lib/libmchp_peripheral_32MX250F128B.a(int_tbl_lib.o)
 .data          0x00000000        0x0 /home/gombe/workspace/machikania/origdev/pic32/compiler/pic32-tools/bin/../lib/gcc/pic32mx/4.5.2/../../../../pic32mx/lib/libmchp_peripheral_32MX250F128B.a(int_tbl_lib.o)
 .bss           0x00000000        0x0 /home/gombe/workspace/machikania/origdev/pic32/compiler/pic32-tools/bin/../lib/gcc/pic32mx/4.5.2/../../../../pic32mx/lib/libmchp_peripheral_32MX250F128B.a(int_tbl_lib.o)
 .reginfo       0x00000000       0x18 /home/gombe/workspace/machikania/origdev/pic32/compiler/pic32-tools/bin/../lib/gcc/pic32mx/4.5.2/../../../../pic32mx/lib/libmchp_peripheral_32MX250F128B.a(int_tbl_lib.o)
 .pdr           0x00000000      0x120 /home/gombe/workspace/machikania/origdev/pic32/compiler/pic32-tools/bin/../lib/gcc/pic32mx/4.5.2/../../../../pic32mx/lib/libmchp_peripheral_32MX250F128B.a(int_tbl_lib.o)
 .text.INTClearFlag
                0x00000000       0x28 /home/gombe/workspace/machikania/origdev/pic32/compiler/pic32-tools/bin/../lib/gcc/pic32mx/4.5.2/../../../../pic32mx/lib/libmchp_peripheral_32MX250F128B.a(int_tbl_lib.o)
 .text.INTSetFlag
                0x00000000       0x28 /home/gombe/workspace/machikania/origdev/pic32/compiler/pic32-tools/bin/../lib/gcc/pic32mx/4.5.2/../../../../pic32mx/lib/libmchp_peripheral_32MX250F128B.a(int_tbl_lib.o)
 .text.INTGetFlag
                0x00000000       0x28 /home/gombe/workspace/machikania/origdev/pic32/compiler/pic32-tools/bin/../lib/gcc/pic32mx/4.5.2/../../../../pic32mx/lib/libmchp_peripheral_32MX250F128B.a(int_tbl_lib.o)
 .text.INTEnable
                0x00000000       0x50 /home/gombe/workspace/machikania/origdev/pic32/compiler/pic32-tools/bin/../lib/gcc/pic32mx/4.5.2/../../../../pic32mx/lib/libmchp_peripheral_32MX250F128B.a(int_tbl_lib.o)
 .text.INTGetEnable
                0x00000000       0x28 /home/gombe/workspace/machikania/origdev/pic32/compiler/pic32-tools/bin/../lib/gcc/pic32mx/4.5.2/../../../../pic32mx/lib/libmchp_peripheral_32MX250F128B.a(int_tbl_lib.o)
 .text.INTSetVectorPriority
                0x00000000       0x38 /home/gombe/workspace/machikania/origdev/pic32/compiler/pic32-tools/bin/../lib/gcc/pic32mx/4.5.2/../../../../pic32mx/lib/libmchp_peripheral_32MX250F128B.a(int_tbl_lib.o)
 .text.INTGetVectorPriority
                0x00000000       0x2c /home/gombe/workspace/machikania/origdev/pic32/compiler/pic32-tools/bin/../lib/gcc/pic32mx/4.5.2/../../../../pic32mx/lib/libmchp_peripheral_32MX250F128B.a(int_tbl_lib.o)
 .text.INTSetVectorSubPriority
                0x00000000       0x38 /home/gombe/workspace/machikania/origdev/pic32/compiler/pic32-tools/bin/../lib/gcc/pic32mx/4.5.2/../../../../pic32mx/lib/libmchp_peripheral_32MX250F128B.a(int_tbl_lib.o)
 .text.INTGetVectorSubPriority
                0x00000000       0x2c /home/gombe/workspace/machikania/origdev/pic32/compiler/pic32-tools/bin/../lib/gcc/pic32mx/4.5.2/../../../../pic32mx/lib/libmchp_peripheral_32MX250F128B.a(int_tbl_lib.o)
 .rodata        0x00000000      0x558 /home/gombe/workspace/machikania/origdev/pic32/compiler/pic32-tools/bin/../lib/gcc/pic32mx/4.5.2/../../../../pic32mx/lib/libmchp_peripheral_32MX250F128B.a(int_tbl_lib.o)
 .text          0x00000000        0x0 /home/gombe/workspace/machikania/origdev/pic32/compiler/pic32-tools/bin/../lib/gcc/pic32mx/4.5.2/../../../../pic32mx/lib/libc.a(lib_a-errno.o)
 .data          0x00000000        0x0 /home/gombe/workspace/machikania/origdev/pic32/compiler/pic32-tools/bin/../lib/gcc/pic32mx/4.5.2/../../../../pic32mx/lib/libc.a(lib_a-errno.o)
 .bss           0x00000000        0x0 /home/gombe/workspace/machikania/origdev/pic32/compiler/pic32-tools/bin/../lib/gcc/pic32mx/4.5.2/../../../../pic32mx/lib/libc.a(lib_a-errno.o)
 .reginfo       0x00000000       0x18 /home/gombe/workspace/machikania/origdev/pic32/compiler/pic32-tools/bin/../lib/gcc/pic32mx/4.5.2/../../../../pic32mx/lib/libc.a(lib_a-errno.o)
 .text          0x00000000        0x0 /home/gombe/workspace/machikania/origdev/pic32/compiler/pic32-tools/bin/../lib/gcc/pic32mx/4.5.2/../../../../pic32mx/lib/debug-exception-return.o
 .data          0x00000000        0x0 /home/gombe/workspace/machikania/origdev/pic32/compiler/pic32-tools/bin/../lib/gcc/pic32mx/4.5.2/../../../../pic32mx/lib/debug-exception-return.o
 .bss           0x00000000        0x0 /home/gombe/workspace/machikania/origdev/pic32/compiler/pic32-tools/bin/../lib/gcc/pic32mx/4.5.2/../../../../pic32mx/lib/debug-exception-return.o
 .reginfo       0x00000000       0x18 /home/gombe/workspace/machikania/origdev/pic32/compiler/pic32-tools/bin/../lib/gcc/pic32mx/4.5.2/../../../../pic32mx/lib/debug-exception-return.o

Memory Configuration

Name             Origin             Length             Attributes
kseg0_program_mem 0x9d007490         0x00038b70         xr
exception_mem    0x9d006000         0x00001000
debug_exec_mem   0x9fc00490         0x00000760
kseg0_boot_mem   0x9d006000         0x00000000
kseg1_boot_mem   0x9d007000         0x00000490
config3          0xbfc00bf0         0x00000004
config2          0xbfc00bf4         0x00000004
config1          0xbfc00bf8         0x00000004
config0          0xbfc00bfc         0x00000004
kseg1_data_mem   0xa0000000         0x00010000         w !x
sfrs             0xbf800000         0x00100000
configsfrs       0xbfc00bf0         0x00000010
*default*        0x00000000         0xffffffff

Linker script and memory map

                0x00000200                _min_heap_size = 0x200
LOAD obj/xprintf.o
LOAD obj/ff.o
LOAD obj/mmc_xmega.o
LOAD obj/matrix4.o
LOAD obj/triangle.o
LOAD obj/vector2.o
LOAD obj/newmain.o
LOAD obj/graphiclib.o
LOAD obj/vector3.o
LOAD obj/graphicdraw.o
LOAD obj/maze.o
LOAD obj/composite32-high4.o
LOAD obj/crtn.o
LOAD obj/crti.o
LOAD obj/crt0.o
LOAD ../../pic32/compiler/pic32-tools/bin/../lib/gcc/pic32mx/4.5.2/crtend.o
LOAD ../../pic32/compiler/pic32-tools/bin/../lib/gcc/pic32mx/4.5.2/crtbegin.o
LOAD /home/gombe/workspace/machikania/origdev/pic32/compiler/pic32-tools/bin/../lib/gcc/pic32mx/4.5.2/../../../../pic32mx/lib/libsupc++.a
LOAD /home/gombe/workspace/machikania/origdev/pic32/compiler/pic32-tools/bin/../lib/gcc/pic32mx/4.5.2/../../../../pic32mx/lib/libm.a
LOAD /home/gombe/workspace/machikania/origdev/pic32/compiler/pic32-tools/bin/../lib/gcc/pic32mx/4.5.2/../../../../pic32mx/lib/./proc/32MX250F128B/default_isr_vectors.o
                0x00000400                PROVIDE (_min_stack_size, 0x400)
LOAD /home/gombe/workspace/machikania/origdev/pic32/compiler/pic32-tools/bin/../lib/gcc/pic32mx/4.5.2/../../../../pic32mx/lib/./proc/32MX250F128B/processor.o
                0x00000001                PROVIDE (_vector_spacing, 0x1)
                0x9d006000                _ebase_address = 0x9d006000
                0x9d007000                _RESET_ADDR = 0x9d007000
                0x9d007380                _BEV_EXCPT_ADDR = 0x9d007380
                0x9d007480                _DBG_EXCPT_ADDR = 0x9d007480
                0x9fc00490                _DBG_CODE_ADDR = 0x9fc00490
                0x00000760                _DBG_CODE_SIZE = 0x760
                0x9d006180                _GEN_EXCPT_ADDR = (_ebase_address + 0x180)

.config_BFC00BF0
 *(.config_BFC00BF0)

.config_BFC00BF4
 *(.config_BFC00BF4)

.config_BFC00BF8
 *(.config_BFC00BF8)

.config_BFC00BFC
 *(.config_BFC00BFC)

.reset          0x9d007000        0x8
 *(.reset)
 .reset         0x9d007000        0x8 obj/crt0.o
                0x9d007000                _reset
 *(.reset.startup)
 .reset.startup
                0x9d007008        0x0 obj/crt0.o

.bev_excpt      0x9d007380       0x10
 *(.bev_handler)
 .bev_handler   0x9d007380       0x10 obj/crt0.o

.dbg_excpt      0x9d007480        0x0
                0x9d007480                . = (. + DEFINED (_DEBUGGER)?0x8:0x0)

.dbg_code       0x9fc00490        0x0
                0x9fc00490                . = (. + DEFINED (_DEBUGGER)?_DBG_CODE_SIZE:0x0)

.app_excpt      0x9d006180       0x10
 *(.gen_handler)
 .gen_handler   0x9d006180       0x10 obj/crt0.o

.vector_0       0x9d006200        0x8
 *(.vector_0)
 .vector_0      0x9d006200        0x8 /home/gombe/workspace/machikania/origdev/pic32/compiler/pic32-tools/bin/../lib/gcc/pic32mx/4.5.2/../../../../pic32mx/lib/libpic32.a(vector0.o)
                0x9d006200                __vector_dispatch_0
                0x00000001                ASSERT (((_vector_spacing == 0x0) || (SIZEOF (.vector_0) <= (_vector_spacing << 0x5))), function at exception vector 0 too large)

.vector_1       0x9d006220        0x8
 *(.vector_1)
 .vector_1      0x9d006220        0x8 /home/gombe/workspace/machikania/origdev/pic32/compiler/pic32-tools/bin/../lib/gcc/pic32mx/4.5.2/../../../../pic32mx/lib/libpic32.a(vector1.o)
                0x9d006220                __vector_dispatch_1
                0x00000001                ASSERT (((_vector_spacing == 0x0) || (SIZEOF (.vector_1) <= (_vector_spacing << 0x5))), function at exception vector 1 too large)

.vector_2       0x9d006240        0x8
 *(.vector_2)
 .vector_2      0x9d006240        0x8 /home/gombe/workspace/machikania/origdev/pic32/compiler/pic32-tools/bin/../lib/gcc/pic32mx/4.5.2/../../../../pic32mx/lib/libpic32.a(vector2.o)
                0x9d006240                __vector_dispatch_2
                0x00000001                ASSERT (((_vector_spacing == 0x0) || (SIZEOF (.vector_2) <= (_vector_spacing << 0x5))), function at exception vector 2 too large)

.vector_3       0x9d006260        0x8
 *(.vector_3)
 .vector_3      0x9d006260        0x8 /home/gombe/workspace/machikania/origdev/pic32/compiler/pic32-tools/bin/../lib/gcc/pic32mx/4.5.2/../../../../pic32mx/lib/libpic32.a(vector3.o)
                0x9d006260                __vector_dispatch_3
                0x00000001                ASSERT (((_vector_spacing == 0x0) || (SIZEOF (.vector_3) <= (_vector_spacing << 0x5))), function at exception vector 3 too large)

.vector_4       0x9d006280        0x8
 *(.vector_4)
 .vector_4      0x9d006280        0x8 /home/gombe/workspace/machikania/origdev/pic32/compiler/pic32-tools/bin/../lib/gcc/pic32mx/4.5.2/../../../../pic32mx/lib/libpic32.a(vector4.o)
                0x9d006280                __vector_dispatch_4
                0x00000001                ASSERT (((_vector_spacing == 0x0) || (SIZEOF (.vector_4) <= (_vector_spacing << 0x5))), function at exception vector 4 too large)

.vector_5       0x9d0062a0        0x8
 *(.vector_5)
 .vector_5      0x9d0062a0        0x8 /home/gombe/workspace/machikania/origdev/pic32/compiler/pic32-tools/bin/../lib/gcc/pic32mx/4.5.2/../../../../pic32mx/lib/libpic32.a(vector5.o)
                0x9d0062a0                __vector_dispatch_5
                0x00000001                ASSERT (((_vector_spacing == 0x0) || (SIZEOF (.vector_5) <= (_vector_spacing << 0x5))), function at exception vector 5 too large)

.vector_6       0x9d0062c0        0x8
 *(.vector_6)
 .vector_6      0x9d0062c0        0x8 obj/composite32-high4.o
                0x9d0062c0                __vector_dispatch_6
                0x00000001                ASSERT (((_vector_spacing == 0x0) || (SIZEOF (.vector_6) <= (_vector_spacing << 0x5))), function at exception vector 6 too large)

.vector_7       0x9d0062e0        0x8
 *(.vector_7)
 .vector_7      0x9d0062e0        0x8 /home/gombe/workspace/machikania/origdev/pic32/compiler/pic32-tools/bin/../lib/gcc/pic32mx/4.5.2/../../../../pic32mx/lib/libpic32.a(vector7.o)
                0x9d0062e0                __vector_dispatch_7
                0x00000001                ASSERT (((_vector_spacing == 0x0) || (SIZEOF (.vector_7) <= (_vector_spacing << 0x5))), function at exception vector 7 too large)

.vector_8       0x9d006300        0x8
 *(.vector_8)
 .vector_8      0x9d006300        0x8 obj/composite32-high4.o
                0x9d006300                __vector_dispatch_8
                0x00000001                ASSERT (((_vector_spacing == 0x0) || (SIZEOF (.vector_8) <= (_vector_spacing << 0x5))), function at exception vector 8 too large)

.vector_9       0x9d006320        0x8
 *(.vector_9)
 .vector_9      0x9d006320        0x8 /home/gombe/workspace/machikania/origdev/pic32/compiler/pic32-tools/bin/../lib/gcc/pic32mx/4.5.2/../../../../pic32mx/lib/libpic32.a(vector9.o)
                0x9d006320                __vector_dispatch_9
                0x00000001                ASSERT (((_vector_spacing == 0x0) || (SIZEOF (.vector_9) <= (_vector_spacing << 0x5))), function at exception vector 9 too large)

.vector_10      0x9d006340        0x8
 *(.vector_10)
 .vector_10     0x9d006340        0x8 obj/composite32-high4.o
                0x9d006340                __vector_dispatch_10
                0x00000001                ASSERT (((_vector_spacing == 0x0) || (SIZEOF (.vector_10) <= (_vector_spacing << 0x5))), function at exception vector 10 too large)

.vector_11      0x9d006360        0x8
 *(.vector_11)
 .vector_11     0x9d006360        0x8 /home/gombe/workspace/machikania/origdev/pic32/compiler/pic32-tools/bin/../lib/gcc/pic32mx/4.5.2/../../../../pic32mx/lib/libpic32.a(vector11.o)
                0x9d006360                __vector_dispatch_11
                0x00000001                ASSERT (((_vector_spacing == 0x0) || (SIZEOF (.vector_11) <= (_vector_spacing << 0x5))), function at exception vector 11 too large)

.vector_12      0x9d006380        0x8
 *(.vector_12)
 .vector_12     0x9d006380        0x8 /home/gombe/workspace/machikania/origdev/pic32/compiler/pic32-tools/bin/../lib/gcc/pic32mx/4.5.2/../../../../pic32mx/lib/libpic32.a(vector12.o)
                0x9d006380                __vector_dispatch_12
                0x00000001                ASSERT (((_vector_spacing == 0x0) || (SIZEOF (.vector_12) <= (_vector_spacing << 0x5))), function at exception vector 12 too large)

.vector_13      0x9d0063a0        0x8
 *(.vector_13)
 .vector_13     0x9d0063a0        0x8 /home/gombe/workspace/machikania/origdev/pic32/compiler/pic32-tools/bin/../lib/gcc/pic32mx/4.5.2/../../../../pic32mx/lib/libpic32.a(vector13.o)
                0x9d0063a0                __vector_dispatch_13
                0x00000001                ASSERT (((_vector_spacing == 0x0) || (SIZEOF (.vector_13) <= (_vector_spacing << 0x5))), function at exception vector 13 too large)

.vector_14      0x9d0063c0        0x8
 *(.vector_14)
 .vector_14     0x9d0063c0        0x8 obj/composite32-high4.o
                0x9d0063c0                __vector_dispatch_14
                0x00000001                ASSERT (((_vector_spacing == 0x0) || (SIZEOF (.vector_14) <= (_vector_spacing << 0x5))), function at exception vector 14 too large)

.vector_15      0x9d0063e0        0x8
 *(.vector_15)
 .vector_15     0x9d0063e0        0x8 /home/gombe/workspace/machikania/origdev/pic32/compiler/pic32-tools/bin/../lib/gcc/pic32mx/4.5.2/../../../../pic32mx/lib/libpic32.a(vector15.o)
                0x9d0063e0                __vector_dispatch_15
                0x00000001                ASSERT (((_vector_spacing == 0x0) || (SIZEOF (.vector_15) <= (_vector_spacing << 0x5))), function at exception vector 15 too large)

.vector_16      0x9d006400        0x8
 *(.vector_16)
 .vector_16     0x9d006400        0x8 /home/gombe/workspace/machikania/origdev/pic32/compiler/pic32-tools/bin/../lib/gcc/pic32mx/4.5.2/../../../../pic32mx/lib/libpic32.a(vector16.o)
                0x9d006400                __vector_dispatch_16
                0x00000001                ASSERT (((_vector_spacing == 0x0) || (SIZEOF (.vector_16) <= (_vector_spacing << 0x5))), function at exception vector 16 too large)

.vector_17      0x9d006420        0x8
 *(.vector_17)
 .vector_17     0x9d006420        0x8 /home/gombe/workspace/machikania/origdev/pic32/compiler/pic32-tools/bin/../lib/gcc/pic32mx/4.5.2/../../../../pic32mx/lib/libpic32.a(vector17.o)
                0x9d006420                __vector_dispatch_17
                0x00000001                ASSERT (((_vector_spacing == 0x0) || (SIZEOF (.vector_17) <= (_vector_spacing << 0x5))), function at exception vector 17 too large)

.vector_18      0x9d006440        0x8
 *(.vector_18)
 .vector_18     0x9d006440        0x8 /home/gombe/workspace/machikania/origdev/pic32/compiler/pic32-tools/bin/../lib/gcc/pic32mx/4.5.2/../../../../pic32mx/lib/libpic32.a(vector18.o)
                0x9d006440                __vector_dispatch_18
                0x00000001                ASSERT (((_vector_spacing == 0x0) || (SIZEOF (.vector_18) <= (_vector_spacing << 0x5))), function at exception vector 18 too large)

.vector_19      0x9d006460        0x8
 *(.vector_19)
 .vector_19     0x9d006460        0x8 /home/gombe/workspace/machikania/origdev/pic32/compiler/pic32-tools/bin/../lib/gcc/pic32mx/4.5.2/../../../../pic32mx/lib/libpic32.a(vector19.o)
                0x9d006460                __vector_dispatch_19
                0x00000001                ASSERT (((_vector_spacing == 0x0) || (SIZEOF (.vector_19) <= (_vector_spacing << 0x5))), function at exception vector 19 too large)

.vector_20      0x9d006480        0x8
 *(.vector_20)
 .vector_20     0x9d006480        0x8 /home/gombe/workspace/machikania/origdev/pic32/compiler/pic32-tools/bin/../lib/gcc/pic32mx/4.5.2/../../../../pic32mx/lib/libpic32.a(vector20.o)
                0x9d006480                __vector_dispatch_20
                0x00000001                ASSERT (((_vector_spacing == 0x0) || (SIZEOF (.vector_20) <= (_vector_spacing << 0x5))), function at exception vector 20 too large)

.vector_21      0x9d0064a0        0x8
 *(.vector_21)
 .vector_21     0x9d0064a0        0x8 /home/gombe/workspace/machikania/origdev/pic32/compiler/pic32-tools/bin/../lib/gcc/pic32mx/4.5.2/../../../../pic32mx/lib/libpic32.a(vector21.o)
                0x9d0064a0                __vector_dispatch_21
                0x00000001                ASSERT (((_vector_spacing == 0x0) || (SIZEOF (.vector_21) <= (_vector_spacing << 0x5))), function at exception vector 21 too large)

.vector_22      0x9d0064c0        0x8
 *(.vector_22)
 .vector_22     0x9d0064c0        0x8 /home/gombe/workspace/machikania/origdev/pic32/compiler/pic32-tools/bin/../lib/gcc/pic32mx/4.5.2/../../../../pic32mx/lib/libpic32.a(vector22.o)
                0x9d0064c0                __vector_dispatch_22
                0x00000001                ASSERT (((_vector_spacing == 0x0) || (SIZEOF (.vector_22) <= (_vector_spacing << 0x5))), function at exception vector 22 too large)

.vector_23      0x9d0064e0        0x8
 *(.vector_23)
 .vector_23     0x9d0064e0        0x8 /home/gombe/workspace/machikania/origdev/pic32/compiler/pic32-tools/bin/../lib/gcc/pic32mx/4.5.2/../../../../pic32mx/lib/libpic32.a(vector23.o)
                0x9d0064e0                __vector_dispatch_23
                0x00000001                ASSERT (((_vector_spacing == 0x0) || (SIZEOF (.vector_23) <= (_vector_spacing << 0x5))), function at exception vector 23 too large)

.vector_24      0x9d006500        0x8
 *(.vector_24)
 .vector_24     0x9d006500        0x8 /home/gombe/workspace/machikania/origdev/pic32/compiler/pic32-tools/bin/../lib/gcc/pic32mx/4.5.2/../../../../pic32mx/lib/libpic32.a(vector24.o)
                0x9d006500                __vector_dispatch_24
                0x00000001                ASSERT (((_vector_spacing == 0x0) || (SIZEOF (.vector_24) <= (_vector_spacing << 0x5))), function at exception vector 24 too large)

.vector_25      0x9d006520        0x8
 *(.vector_25)
 .vector_25     0x9d006520        0x8 /home/gombe/workspace/machikania/origdev/pic32/compiler/pic32-tools/bin/../lib/gcc/pic32mx/4.5.2/../../../../pic32mx/lib/libpic32.a(vector25.o)
                0x9d006520                __vector_dispatch_25
                0x00000001                ASSERT (((_vector_spacing == 0x0) || (SIZEOF (.vector_25) <= (_vector_spacing << 0x5))), function at exception vector 25 too large)

.vector_26      0x9d006540        0x8
 *(.vector_26)
 .vector_26     0x9d006540        0x8 /home/gombe/workspace/machikania/origdev/pic32/compiler/pic32-tools/bin/../lib/gcc/pic32mx/4.5.2/../../../../pic32mx/lib/libpic32.a(vector26.o)
                0x9d006540                __vector_dispatch_26
                0x00000001                ASSERT (((_vector_spacing == 0x0) || (SIZEOF (.vector_26) <= (_vector_spacing << 0x5))), function at exception vector 26 too large)

.vector_27      0x9d006560        0x8
 *(.vector_27)
 .vector_27     0x9d006560        0x8 /home/gombe/workspace/machikania/origdev/pic32/compiler/pic32-tools/bin/../lib/gcc/pic32mx/4.5.2/../../../../pic32mx/lib/libpic32.a(vector27.o)
                0x9d006560                __vector_dispatch_27
                0x00000001                ASSERT (((_vector_spacing == 0x0) || (SIZEOF (.vector_27) <= (_vector_spacing << 0x5))), function at exception vector 27 too large)

.vector_28      0x9d006580        0x8
 *(.vector_28)
 .vector_28     0x9d006580        0x8 /home/gombe/workspace/machikania/origdev/pic32/compiler/pic32-tools/bin/../lib/gcc/pic32mx/4.5.2/../../../../pic32mx/lib/libpic32.a(vector28.o)
                0x9d006580                __vector_dispatch_28
                0x00000001                ASSERT (((_vector_spacing == 0x0) || (SIZEOF (.vector_28) <= (_vector_spacing << 0x5))), function at exception vector 28 too large)

.vector_29      0x9d0065a0        0x8
 *(.vector_29)
 .vector_29     0x9d0065a0        0x8 /home/gombe/workspace/machikania/origdev/pic32/compiler/pic32-tools/bin/../lib/gcc/pic32mx/4.5.2/../../../../pic32mx/lib/libpic32.a(vector29.o)
                0x9d0065a0                __vector_dispatch_29
                0x00000001                ASSERT (((_vector_spacing == 0x0) || (SIZEOF (.vector_29) <= (_vector_spacing << 0x5))), function at exception vector 29 too large)

.vector_30      0x9d0065c0        0x8
 *(.vector_30)
 .vector_30     0x9d0065c0        0x8 /home/gombe/workspace/machikania/origdev/pic32/compiler/pic32-tools/bin/../lib/gcc/pic32mx/4.5.2/../../../../pic32mx/lib/libpic32.a(vector30.o)
                0x9d0065c0                __vector_dispatch_30
                0x00000001                ASSERT (((_vector_spacing == 0x0) || (SIZEOF (.vector_30) <= (_vector_spacing << 0x5))), function at exception vector 30 too large)

.vector_31      0x9d0065e0        0x8
 *(.vector_31)
 .vector_31     0x9d0065e0        0x8 /home/gombe/workspace/machikania/origdev/pic32/compiler/pic32-tools/bin/../lib/gcc/pic32mx/4.5.2/../../../../pic32mx/lib/libpic32.a(vector31.o)
                0x9d0065e0                __vector_dispatch_31
                0x00000001                ASSERT (((_vector_spacing == 0x0) || (SIZEOF (.vector_31) <= (_vector_spacing << 0x5))), function at exception vector 31 too large)

.vector_32      0x9d006600        0x8
 *(.vector_32)
 .vector_32     0x9d006600        0x8 /home/gombe/workspace/machikania/origdev/pic32/compiler/pic32-tools/bin/../lib/gcc/pic32mx/4.5.2/../../../../pic32mx/lib/libpic32.a(vector32.o)
                0x9d006600                __vector_dispatch_32
                0x00000001                ASSERT (((_vector_spacing == 0x0) || (SIZEOF (.vector_32) <= (_vector_spacing << 0x5))), function at exception vector 32 too large)

.vector_33      0x9d006620        0x8
 *(.vector_33)
 .vector_33     0x9d006620        0x8 /home/gombe/workspace/machikania/origdev/pic32/compiler/pic32-tools/bin/../lib/gcc/pic32mx/4.5.2/../../../../pic32mx/lib/libpic32.a(vector33.o)
                0x9d006620                __vector_dispatch_33
                0x00000001                ASSERT (((_vector_spacing == 0x0) || (SIZEOF (.vector_33) <= (_vector_spacing << 0x5))), function at exception vector 33 too large)

.vector_34      0x9d006640        0x8
 *(.vector_34)
 .vector_34     0x9d006640        0x8 /home/gombe/workspace/machikania/origdev/pic32/compiler/pic32-tools/bin/../lib/gcc/pic32mx/4.5.2/../../../../pic32mx/lib/libpic32.a(vector34.o)
                0x9d006640                __vector_dispatch_34
                0x00000001                ASSERT (((_vector_spacing == 0x0) || (SIZEOF (.vector_34) <= (_vector_spacing << 0x5))), function at exception vector 34 too large)

.vector_35      0x9d006660        0x8
 *(.vector_35)
 .vector_35     0x9d006660        0x8 /home/gombe/workspace/machikania/origdev/pic32/compiler/pic32-tools/bin/../lib/gcc/pic32mx/4.5.2/../../../../pic32mx/lib/libpic32.a(vector35.o)
                0x9d006660                __vector_dispatch_35
                0x00000001                ASSERT (((_vector_spacing == 0x0) || (SIZEOF (.vector_35) <= (_vector_spacing << 0x5))), function at exception vector 35 too large)

.vector_36      0x9d006680        0x8
 *(.vector_36)
 .vector_36     0x9d006680        0x8 /home/gombe/workspace/machikania/origdev/pic32/compiler/pic32-tools/bin/../lib/gcc/pic32mx/4.5.2/../../../../pic32mx/lib/libpic32.a(vector36.o)
                0x9d006680                __vector_dispatch_36
                0x00000001                ASSERT (((_vector_spacing == 0x0) || (SIZEOF (.vector_36) <= (_vector_spacing << 0x5))), function at exception vector 36 too large)

.vector_37      0x9d0066a0        0x8
 *(.vector_37)
 .vector_37     0x9d0066a0        0x8 /home/gombe/workspace/machikania/origdev/pic32/compiler/pic32-tools/bin/../lib/gcc/pic32mx/4.5.2/../../../../pic32mx/lib/libpic32.a(vector37.o)
                0x9d0066a0                __vector_dispatch_37
                0x00000001                ASSERT (((_vector_spacing == 0x0) || (SIZEOF (.vector_37) <= (_vector_spacing << 0x5))), function at exception vector 37 too large)

.vector_38      0x9d0066c0        0x8
 *(.vector_38)
 .vector_38     0x9d0066c0        0x8 /home/gombe/workspace/machikania/origdev/pic32/compiler/pic32-tools/bin/../lib/gcc/pic32mx/4.5.2/../../../../pic32mx/lib/libpic32.a(vector38.o)
                0x9d0066c0                __vector_dispatch_38
                0x00000001                ASSERT (((_vector_spacing == 0x0) || (SIZEOF (.vector_38) <= (_vector_spacing << 0x5))), function at exception vector 38 too large)

.vector_39      0x9d0066e0        0x8
 *(.vector_39)
 .vector_39     0x9d0066e0        0x8 /home/gombe/workspace/machikania/origdev/pic32/compiler/pic32-tools/bin/../lib/gcc/pic32mx/4.5.2/../../../../pic32mx/lib/libpic32.a(vector39.o)
                0x9d0066e0                __vector_dispatch_39
                0x00000001                ASSERT (((_vector_spacing == 0x0) || (SIZEOF (.vector_39) <= (_vector_spacing << 0x5))), function at exception vector 39 too large)

.vector_40      0x9d006700        0x8
 *(.vector_40)
 .vector_40     0x9d006700        0x8 /home/gombe/workspace/machikania/origdev/pic32/compiler/pic32-tools/bin/../lib/gcc/pic32mx/4.5.2/../../../../pic32mx/lib/libpic32.a(vector40.o)
                0x9d006700                __vector_dispatch_40
                0x00000001                ASSERT (((_vector_spacing == 0x0) || (SIZEOF (.vector_40) <= (_vector_spacing << 0x5))), function at exception vector 40 too large)

.vector_41      0x9d006720        0x8
 *(.vector_41)
 .vector_41     0x9d006720        0x8 /home/gombe/workspace/machikania/origdev/pic32/compiler/pic32-tools/bin/../lib/gcc/pic32mx/4.5.2/../../../../pic32mx/lib/libpic32.a(vector41.o)
                0x9d006720                __vector_dispatch_41
                0x00000001                ASSERT (((_vector_spacing == 0x0) || (SIZEOF (.vector_41) <= (_vector_spacing << 0x5))), function at exception vector 41 too large)

.vector_42      0x9d006740        0x8
 *(.vector_42)
 .vector_42     0x9d006740        0x8 /home/gombe/workspace/machikania/origdev/pic32/compiler/pic32-tools/bin/../lib/gcc/pic32mx/4.5.2/../../../../pic32mx/lib/libpic32.a(vector42.o)
                0x9d006740                __vector_dispatch_42
                0x00000001                ASSERT (((_vector_spacing == 0x0) || (SIZEOF (.vector_42) <= (_vector_spacing << 0x5))), function at exception vector 42 too large)

.vector_43      0x9d006760        0x8
 *(.vector_43)
 .vector_43     0x9d006760        0x8 /home/gombe/workspace/machikania/origdev/pic32/compiler/pic32-tools/bin/../lib/gcc/pic32mx/4.5.2/../../../../pic32mx/lib/libpic32.a(vector43.o)
                0x9d006760                __vector_dispatch_43
                0x00000001                ASSERT (((_vector_spacing == 0x0) || (SIZEOF (.vector_43) <= (_vector_spacing << 0x5))), function at exception vector 43 too large)

.vector_44      0x9d006780        0x8
 *(.vector_44)
 .vector_44     0x9d006780        0x8 /home/gombe/workspace/machikania/origdev/pic32/compiler/pic32-tools/bin/../lib/gcc/pic32mx/4.5.2/../../../../pic32mx/lib/libpic32.a(vector44.o)
                0x9d006780                __vector_dispatch_44
                0x00000001                ASSERT (((_vector_spacing == 0x0) || (SIZEOF (.vector_44) <= (_vector_spacing << 0x5))), function at exception vector 44 too large)

.vector_45      0x9d0067a0        0x8
 *(.vector_45)
 .vector_45     0x9d0067a0        0x8 /home/gombe/workspace/machikania/origdev/pic32/compiler/pic32-tools/bin/../lib/gcc/pic32mx/4.5.2/../../../../pic32mx/lib/libpic32.a(vector45.o)
                0x9d0067a0                __vector_dispatch_45
                0x00000001                ASSERT (((_vector_spacing == 0x0) || (SIZEOF (.vector_45) <= (_vector_spacing << 0x5))), function at exception vector 45 too large)

.vector_46      0x9d0067c0        0x8
 *(.vector_46)
 .vector_46     0x9d0067c0        0x8 /home/gombe/workspace/machikania/origdev/pic32/compiler/pic32-tools/bin/../lib/gcc/pic32mx/4.5.2/../../../../pic32mx/lib/libpic32.a(vector46.o)
                0x9d0067c0                __vector_dispatch_46
                0x00000001                ASSERT (((_vector_spacing == 0x0) || (SIZEOF (.vector_46) <= (_vector_spacing << 0x5))), function at exception vector 46 too large)

.vector_47      0x9d0067e0        0x8
 *(.vector_47)
 .vector_47     0x9d0067e0        0x8 /home/gombe/workspace/machikania/origdev/pic32/compiler/pic32-tools/bin/../lib/gcc/pic32mx/4.5.2/../../../../pic32mx/lib/libpic32.a(vector47.o)
                0x9d0067e0                __vector_dispatch_47
                0x00000001                ASSERT (((_vector_spacing == 0x0) || (SIZEOF (.vector_47) <= (_vector_spacing << 0x5))), function at exception vector 47 too large)

.vector_48      0x9d006800        0x8
 *(.vector_48)
 .vector_48     0x9d006800        0x8 /home/gombe/workspace/machikania/origdev/pic32/compiler/pic32-tools/bin/../lib/gcc/pic32mx/4.5.2/../../../../pic32mx/lib/libpic32.a(vector48.o)
                0x9d006800                __vector_dispatch_48
                0x00000001                ASSERT (((_vector_spacing == 0x0) || (SIZEOF (.vector_48) <= (_vector_spacing << 0x5))), function at exception vector 48 too large)

.vector_49      0x9d006820        0x8
 *(.vector_49)
 .vector_49     0x9d006820        0x8 /home/gombe/workspace/machikania/origdev/pic32/compiler/pic32-tools/bin/../lib/gcc/pic32mx/4.5.2/../../../../pic32mx/lib/libpic32.a(vector49.o)
                0x9d006820                __vector_dispatch_49
                0x00000001                ASSERT (((_vector_spacing == 0x0) || (SIZEOF (.vector_49) <= (_vector_spacing << 0x5))), function at exception vector 49 too large)

.vector_50      0x9d006840        0x8
 *(.vector_50)
 .vector_50     0x9d006840        0x8 /home/gombe/workspace/machikania/origdev/pic32/compiler/pic32-tools/bin/../lib/gcc/pic32mx/4.5.2/../../../../pic32mx/lib/libpic32.a(vector50.o)
                0x9d006840                __vector_dispatch_50
                0x00000001                ASSERT (((_vector_spacing == 0x0) || (SIZEOF (.vector_50) <= (_vector_spacing << 0x5))), function at exception vector 50 too large)

.vector_51      0x9d006860        0x8
 *(.vector_51)
 .vector_51     0x9d006860        0x8 /home/gombe/workspace/machikania/origdev/pic32/compiler/pic32-tools/bin/../lib/gcc/pic32mx/4.5.2/../../../../pic32mx/lib/libpic32.a(vector51.o)
                0x9d006860                __vector_dispatch_51
                0x00000001                ASSERT (((_vector_spacing == 0x0) || (SIZEOF (.vector_51) <= (_vector_spacing << 0x5))), function at exception vector 51 too large)

.vector_52      0x9d006880        0x8
 *(.vector_52)
 .vector_52     0x9d006880        0x8 /home/gombe/workspace/machikania/origdev/pic32/compiler/pic32-tools/bin/../lib/gcc/pic32mx/4.5.2/../../../../pic32mx/lib/libpic32.a(vector52.o)
                0x9d006880                __vector_dispatch_52
                0x00000001                ASSERT (((_vector_spacing == 0x0) || (SIZEOF (.vector_52) <= (_vector_spacing << 0x5))), function at exception vector 52 too large)

.vector_53      0x9d0068a0        0x8
 *(.vector_53)
 .vector_53     0x9d0068a0        0x8 /home/gombe/workspace/machikania/origdev/pic32/compiler/pic32-tools/bin/../lib/gcc/pic32mx/4.5.2/../../../../pic32mx/lib/libpic32.a(vector53.o)
                0x9d0068a0                __vector_dispatch_53
                0x00000001                ASSERT (((_vector_spacing == 0x0) || (SIZEOF (.vector_53) <= (_vector_spacing << 0x5))), function at exception vector 53 too large)

.vector_54      0x9d0068c0        0x8
 *(.vector_54)
 .vector_54     0x9d0068c0        0x8 /home/gombe/workspace/machikania/origdev/pic32/compiler/pic32-tools/bin/../lib/gcc/pic32mx/4.5.2/../../../../pic32mx/lib/libpic32.a(vector54.o)
                0x9d0068c0                __vector_dispatch_54
                0x00000001                ASSERT (((_vector_spacing == 0x0) || (SIZEOF (.vector_54) <= (_vector_spacing << 0x5))), function at exception vector 54 too large)

.vector_55      0x9d0068e0        0x8
 *(.vector_55)
 .vector_55     0x9d0068e0        0x8 /home/gombe/workspace/machikania/origdev/pic32/compiler/pic32-tools/bin/../lib/gcc/pic32mx/4.5.2/../../../../pic32mx/lib/libpic32.a(vector55.o)
                0x9d0068e0                __vector_dispatch_55
                0x00000001                ASSERT (((_vector_spacing == 0x0) || (SIZEOF (.vector_55) <= (_vector_spacing << 0x5))), function at exception vector 55 too large)

.vector_56      0x9d006900        0x8
 *(.vector_56)
 .vector_56     0x9d006900        0x8 /home/gombe/workspace/machikania/origdev/pic32/compiler/pic32-tools/bin/../lib/gcc/pic32mx/4.5.2/../../../../pic32mx/lib/libpic32.a(vector56.o)
                0x9d006900                __vector_dispatch_56
                0x00000001                ASSERT (((_vector_spacing == 0x0) || (SIZEOF (.vector_56) <= (_vector_spacing << 0x5))), function at exception vector 56 too large)

.vector_57      0x9d006920        0x8
 *(.vector_57)
 .vector_57     0x9d006920        0x8 /home/gombe/workspace/machikania/origdev/pic32/compiler/pic32-tools/bin/../lib/gcc/pic32mx/4.5.2/../../../../pic32mx/lib/libpic32.a(vector57.o)
                0x9d006920                __vector_dispatch_57
                0x00000001                ASSERT (((_vector_spacing == 0x0) || (SIZEOF (.vector_57) <= (_vector_spacing << 0x5))), function at exception vector 57 too large)

.vector_58      0x9d006940        0x8
 *(.vector_58)
 .vector_58     0x9d006940        0x8 /home/gombe/workspace/machikania/origdev/pic32/compiler/pic32-tools/bin/../lib/gcc/pic32mx/4.5.2/../../../../pic32mx/lib/libpic32.a(vector58.o)
                0x9d006940                __vector_dispatch_58
                0x00000001                ASSERT (((_vector_spacing == 0x0) || (SIZEOF (.vector_58) <= (_vector_spacing << 0x5))), function at exception vector 58 too large)

.vector_59      0x9d006960        0x8
 *(.vector_59)
 .vector_59     0x9d006960        0x8 /home/gombe/workspace/machikania/origdev/pic32/compiler/pic32-tools/bin/../lib/gcc/pic32mx/4.5.2/../../../../pic32mx/lib/libpic32.a(vector59.o)
                0x9d006960                __vector_dispatch_59
                0x00000001                ASSERT (((_vector_spacing == 0x0) || (SIZEOF (.vector_59) <= (_vector_spacing << 0x5))), function at exception vector 59 too large)

.vector_60      0x9d006980        0x8
 *(.vector_60)
 .vector_60     0x9d006980        0x8 /home/gombe/workspace/machikania/origdev/pic32/compiler/pic32-tools/bin/../lib/gcc/pic32mx/4.5.2/../../../../pic32mx/lib/libpic32.a(vector60.o)
                0x9d006980                __vector_dispatch_60
                0x00000001                ASSERT (((_vector_spacing == 0x0) || (SIZEOF (.vector_60) <= (_vector_spacing << 0x5))), function at exception vector 60 too large)

.vector_61      0x9d0069a0        0x8
 *(.vector_61)
 .vector_61     0x9d0069a0        0x8 /home/gombe/workspace/machikania/origdev/pic32/compiler/pic32-tools/bin/../lib/gcc/pic32mx/4.5.2/../../../../pic32mx/lib/libpic32.a(vector61.o)
                0x9d0069a0                __vector_dispatch_61
                0x00000001                ASSERT (((_vector_spacing == 0x0) || (SIZEOF (.vector_61) <= (_vector_spacing << 0x5))), function at exception vector 61 too large)

.vector_62      0x9d0069c0        0x8
 *(.vector_62)
 .vector_62     0x9d0069c0        0x8 /home/gombe/workspace/machikania/origdev/pic32/compiler/pic32-tools/bin/../lib/gcc/pic32mx/4.5.2/../../../../pic32mx/lib/libpic32.a(vector62.o)
                0x9d0069c0                __vector_dispatch_62
                0x00000001                ASSERT (((_vector_spacing == 0x0) || (SIZEOF (.vector_62) <= (_vector_spacing << 0x5))), function at exception vector 62 too large)

.vector_63      0x9d0069e0        0x8
 *(.vector_63)
 .vector_63     0x9d0069e0        0x8 /home/gombe/workspace/machikania/origdev/pic32/compiler/pic32-tools/bin/../lib/gcc/pic32mx/4.5.2/../../../../pic32mx/lib/libpic32.a(vector63.o)
                0x9d0069e0                __vector_dispatch_63
                0x00000001                ASSERT (((_vector_spacing == 0x0) || (SIZEOF (.vector_63) <= (_vector_spacing << 0x5))), function at exception vector 63 too large)

.startup
 *(.startup)

.text           0x9d007490        0x0
 *(.stub .gnu.linkonce.t.*)
 *(.text.*personality*)
 *(.mips16.fn.*)
 *(.mips16.call.*)
 *(.gnu.warning)
                0x9d007490                . = ALIGN (0x4)

.init           0x9d007490       0x24
 *crti.o(.init)
 .init          0x9d007490        0x8 obj/crti.o
                0x9d007490                _init
 *crtbegin.o(.init)
 .init          0x9d007498        0x8 ../../pic32/compiler/pic32-tools/bin/../lib/gcc/pic32mx/4.5.2/crtbegin.o
 *(EXCLUDE_FILE(*crtn.o *crtend?.o *crtend.o) .init)
 *crtend.o(.init)
 .init          0x9d0074a0        0x8 ../../pic32/compiler/pic32-tools/bin/../lib/gcc/pic32mx/4.5.2/crtend.o
 *crtn.o(.init)
 .init          0x9d0074a8        0xc obj/crtn.o
                0x9d0074b4                . = ALIGN (0x4)

.fini           0x9d0074b4       0x1c
 *(.fini)
 .fini          0x9d0074b4        0xc obj/crtn.o
 .fini          0x9d0074c0        0x8 obj/crti.o
                0x9d0074c0                _fini
 .fini          0x9d0074c8        0x8 ../../pic32/compiler/pic32-tools/bin/../lib/gcc/pic32mx/4.5.2/crtbegin.o
                0x9d0074d0                . = ALIGN (0x4)

.preinit_array  0x9d0074d0        0x0
                0x9d0074d0                PROVIDE (__preinit_array_start, .)
 *(.preinit_array)
                0x9d0074d0                PROVIDE (__preinit_array_end, .)
                0x9d0074d0                . = ALIGN (0x4)

.init_array     0x9d0074d0        0x0
                0x9d0074d0                PROVIDE (__init_array_start, .)
 *(SORT(.init_array.*))
 *(.init_array)
                0x9d0074d0                PROVIDE (__init_array_end, .)
                0x9d0074d0                . = ALIGN (0x4)

.fini_array     0x9d0074d0        0x0
                0x9d0074d0                PROVIDE (__fini_array_start, .)
 *(SORT(.fini_array.*))
 *(.fini_array)
                0x9d0074d0                PROVIDE (__fini_array_end, .)
                0x9d0074d0                . = ALIGN (0x4)

.ctors          0x9d0074d0        0xc
 *crtbegin.o(.ctors)
 .ctors         0x9d0074d0        0x4 ../../pic32/compiler/pic32-tools/bin/../lib/gcc/pic32mx/4.5.2/crtbegin.o
 *crtbegin?.o(.ctors)
 *(EXCLUDE_FILE(*crtend?.o *crtend.o) .ctors)
 .ctors         0x9d0074d4        0x4 obj/newmain.o
 *(SORT(.ctors.*))
 *(.ctors)
 .ctors         0x9d0074d8        0x4 ../../pic32/compiler/pic32-tools/bin/../lib/gcc/pic32mx/4.5.2/crtend.o
                0x9d0074dc                . = ALIGN (0x4)

.dtors          0x9d0074dc        0x8
 *crtbegin.o(.dtors)
 .dtors         0x9d0074dc        0x4 ../../pic32/compiler/pic32-tools/bin/../lib/gcc/pic32mx/4.5.2/crtbegin.o
 *crtbegin?.o(.dtors)
 *(EXCLUDE_FILE(*crtend?.o *crtend.o) .dtors)
 *(SORT(.dtors.*))
 *(.dtors)
 .dtors         0x9d0074e0        0x4 ../../pic32/compiler/pic32-tools/bin/../lib/gcc/pic32mx/4.5.2/crtend.o
                0x9d0074e0                __DTOR_END__
                0x9d0074e4                . = ALIGN (0x4)

.rodata         0x9d0074e4        0x0
 *(.gnu.linkonce.r.*)
 *(.rodata1)
                0x9d0074e4                . = ALIGN (0x4)

.sdata2         0x9d0074e4        0x0
 *(.sdata2 .sdata2.* .gnu.linkonce.s2.*)
                0x9d0074e4                . = ALIGN (0x4)

.sbss2          0x9d0074e4        0x0
 *(.sbss2 .sbss2.* .gnu.linkonce.sb2.*)
                0x9d0074e4                . = ALIGN (0x4)

.eh_frame_hdr
 *(.eh_frame_hdr)
                0x9d0074e4                . = ALIGN (0x4)

.eh_frame
 *(.eh_frame)
                0x9d0074e4                . = ALIGN (0x4)

.gcc_except_table
 *(.gcc_except_table .gcc_except_table.*)
                0x9d0074e4                . = ALIGN (0x4)

.dbg_data       0xa0000000        0x0
                0xa0000000                . = (. + DEFINED (_DEBUGGER)?0x200:0x0)

.jcr            0xa0000000        0x4
 *(.jcr)
 .jcr           0xa0000000        0x4 ../../pic32/compiler/pic32-tools/bin/../lib/gcc/pic32mx/4.5.2/crtend.o
 .jcr           0xa0000004        0x0 ../../pic32/compiler/pic32-tools/bin/../lib/gcc/pic32mx/4.5.2/crtbegin.o
                0xa0000004                . = ALIGN (0x4)

.eh_frame       0xa0000004       0x54
 *(.eh_frame)
 .eh_frame      0xa0000004        0x4 ../../pic32/compiler/pic32-tools/bin/../lib/gcc/pic32mx/4.5.2/crtend.o
 .eh_frame      0xa0000008        0x0 ../../pic32/compiler/pic32-tools/bin/../lib/gcc/pic32mx/4.5.2/crtbegin.o
 .eh_frame      0xa0000008       0x28 /home/gombe/workspace/machikania/origdev/pic32/compiler/pic32-tools/bin/../lib/gcc/pic32mx/4.5.2/libgcc.a(_divdi3.o)
 .eh_frame      0xa0000030       0x14 /home/gombe/workspace/machikania/origdev/pic32/compiler/pic32-tools/bin/../lib/gcc/pic32mx/4.5.2/libgcc.a(_udivdi3.o)
 .eh_frame      0xa0000044       0x14 /home/gombe/workspace/machikania/origdev/pic32/compiler/pic32-tools/bin/../lib/gcc/pic32mx/4.5.2/libgcc.a(_umoddi3.o)
                0xa0000058                . = ALIGN (0x4)

.gcc_except_table
 *(.gcc_except_table .gcc_except_table.*)
                0xa0000058                . = ALIGN (0x4)

.persist        0xa0000058        0x0
                0xa0000058                _persist_begin = .
 *(.persist .persist.*)
 *(.pbss .pbss.*)
                0xa0000058                . = ALIGN (0x4)
                0xa0000058                _persist_end = .

.data           0xa0000058        0x0
 *(.gnu.linkonce.d.*)
 *(.data1)
                0xa0000058                . = ALIGN (0x4)
                0xa0000058                . = .
                0xa0008050                _gp = (ALIGN (0x10) + 0x7ff0)

.got            0xa0000058        0x0
 *(.got.plt)
 *(.got)
                0xa0000058                . = ALIGN (0x4)

.sdata          0xa0000058       0x30
                0xa0000058                _sdata_begin = .
 *(.sdata .sdata.* .gnu.linkonce.s.*)
 .sdata         0xa0000058        0x4 obj/mmc_xmega.o
 .sdata         0xa000005c       0x10 obj/maze.o
 .sdata         0xa000006c        0x4 ../../pic32/compiler/pic32-tools/bin/../lib/gcc/pic32mx/4.5.2/crtbegin.o
                0xa000006c                __dso_handle
 .sdata._impure_ptr._impure_ptr
                0xa0000070        0x4 /home/gombe/workspace/machikania/origdev/pic32/compiler/pic32-tools/bin/../lib/gcc/pic32mx/4.5.2/../../../../pic32mx/lib/libc.a(lib_a-impure.o)
                0xa0000070                _impure_ptr
 .sdata.__mb_cur_max.__mb_cur_max
                0xa0000074        0x4 /home/gombe/workspace/machikania/origdev/pic32/compiler/pic32-tools/bin/../lib/gcc/pic32mx/4.5.2/../../../../pic32mx/lib/libc.a(lib_a-locale.o)
                0xa0000074                __mb_cur_max
 .sdata.__malloc_trim_threshold.__malloc_trim_threshold
                0xa0000078        0x4 /home/gombe/workspace/machikania/origdev/pic32/compiler/pic32-tools/bin/../lib/gcc/pic32mx/4.5.2/../../../../pic32mx/lib/libc.a(lib_a-mallocr.o)
                0xa0000078                __malloc_trim_threshold
 .sdata.__malloc_sbrk_base.__malloc_sbrk_base
                0xa000007c        0x4 /home/gombe/workspace/machikania/origdev/pic32/compiler/pic32-tools/bin/../lib/gcc/pic32mx/4.5.2/../../../../pic32mx/lib/libc.a(lib_a-mallocr.o)
                0xa000007c                __malloc_sbrk_base
 .sdata.__wctomb.__wctomb
                0xa0000080        0x4 /home/gombe/workspace/machikania/origdev/pic32/compiler/pic32-tools/bin/../lib/gcc/pic32mx/4.5.2/../../../../pic32mx/lib/libc.a(lib_a-wctomb_r.o)
                0xa0000080                __wctomb
 .sdata.__XC_UART
                0xa0000084        0x4 /home/gombe/workspace/machikania/origdev/pic32/compiler/pic32-tools/bin/../lib/gcc/pic32mx/4.5.2/../../../../pic32mx/lib/libpic32.a(xc32_uart.o)
                0xa0000084                __XC_UART
                0xa0000088                . = ALIGN (0x4)
                0xa0000088                _sdata_end = .

.lit8
 *(.lit8)

.lit4
 *(.lit4)
                0xa0000088                . = ALIGN (0x4)
                0xa0000088                _data_end = .
                0xa0000088                _bss_begin = .

.sbss           0xa0000088       0x54
                0xa0000088                _sbss_begin = .
 *(.dynsbss)
 *(.sbss .sbss.* .gnu.linkonce.sb.*)
 .sbss          0xa0000088        0x4 obj/xprintf.o
 .sbss          0xa000008c        0x8 obj/ff.o
 .sbss          0xa0000094        0xc obj/mmc_xmega.o
 .sbss          0xa00000a0        0x4 obj/graphiclib.o
                0xa00000a0                frame
 .sbss          0xa00000a4        0xc obj/composite32-high4.o
                0xa00000a4                VRAMp
                0xa00000a8                LineCount
                0xa00000aa                drawcount
                0xa00000ac                drawing
 .sbss.__nlocale_changed.__nlocale_changed
                0xa00000b0        0x4 /home/gombe/workspace/machikania/origdev/pic32/compiler/pic32-tools/bin/../lib/gcc/pic32mx/4.5.2/../../../../pic32mx/lib/libc.a(lib_a-locale.o)
                0xa00000b0                __nlocale_changed
 .sbss.__mlocale_changed.__mlocale_changed
                0xa00000b4        0x4 /home/gombe/workspace/machikania/origdev/pic32/compiler/pic32-tools/bin/../lib/gcc/pic32mx/4.5.2/../../../../pic32mx/lib/libc.a(lib_a-locale.o)
                0xa00000b4                __mlocale_changed
 .sbss._PathLocale._PathLocale
                0xa00000b8        0x4 /home/gombe/workspace/machikania/origdev/pic32/compiler/pic32-tools/bin/../lib/gcc/pic32mx/4.5.2/../../../../pic32mx/lib/libc.a(lib_a-locale.o)
                0xa00000b8                _PathLocale
 .sbss.__malloc_top_pad.__malloc_top_pad
                0xa00000bc        0x4 /home/gombe/workspace/machikania/origdev/pic32/compiler/pic32-tools/bin/../lib/gcc/pic32mx/4.5.2/../../../../pic32mx/lib/libc.a(lib_a-mallocr.o)
                0xa00000bc                __malloc_top_pad
 .sbss.__malloc_max_sbrked_mem.__malloc_max_sbrked_mem
                0xa00000c0        0x4 /home/gombe/workspace/machikania/origdev/pic32/compiler/pic32-tools/bin/../lib/gcc/pic32mx/4.5.2/../../../../pic32mx/lib/libc.a(lib_a-mallocr.o)
                0xa00000c0                __malloc_max_sbrked_mem
 .sbss.__malloc_max_total_mem.__malloc_max_total_mem
                0xa00000c4        0x4 /home/gombe/workspace/machikania/origdev/pic32/compiler/pic32-tools/bin/../lib/gcc/pic32mx/4.5.2/../../../../pic32mx/lib/libc.a(lib_a-mallocr.o)
                0xa00000c4                __malloc_max_total_mem
 .sbss._minbrk._minbrk
                0xa00000c8        0x4 /home/gombe/workspace/machikania/origdev/pic32/compiler/pic32-tools/bin/../lib/gcc/pic32mx/4.5.2/../../../../pic32mx/lib/libpic32.a(sbrk.o)
                0xa00000c8                _minbrk
 .sbss._maxbrk._maxbrk
                0xa00000cc        0x4 /home/gombe/workspace/machikania/origdev/pic32/compiler/pic32-tools/bin/../lib/gcc/pic32mx/4.5.2/../../../../pic32mx/lib/libpic32.a(sbrk.o)
                0xa00000cc                _maxbrk
 *(.scommon)
 .scommon       0xa00000d0        0x8 obj/xprintf.o
                0xa00000d0                xfunc_in
                0xa00000d4                xfunc_out
 .scommon       0xa00000d8        0x4 /home/gombe/workspace/machikania/origdev/pic32/compiler/pic32-tools/bin/../lib/gcc/pic32mx/4.5.2/../../../../pic32mx/lib/libc.a(lib_a-reent.o)
                0xa00000d8                errno
                0xa00000dc                _sbss_end = .
                0xa00000dc                . = ALIGN (0x4)

.bss            0xa00000dc        0x0
 *(.dynbss)
 *(COMMON)
                0xa00000dc                . = ALIGN ((. != 0x0)?0x4:0x1)
                0xa00000dc                . = ALIGN (0x4)
                0xa00000dc                _end = .
                0xa00000dc                _bss_end = .
                0x00010000                _bmxdudba_address = 0x10000
                0x00010000                _bmxdupba_address = 0x10000

/DISCARD/
 *(.pdr)
 *(.rel.dyn)
 *(.note.GNU-stack)
 *(.note.GNU-stack)
 *(.gnu_debuglink)
 *(.gnu.lto_*)
 *(.discard)

.gptab.sdata
 *(.gptab.data)
 *(.gptab.sdata)

.gptab.sbss
 *(.gptab.bss)
 *(.gptab.sbss)

.mdebug.abi32   0xa00000dc        0x0
 *(.mdebug.abi32)
 .mdebug.abi32  0xa00000dc        0x0 obj/xprintf.o
 .mdebug.abi32  0xa00000dc        0x0 obj/ff.o
 .mdebug.abi32  0xa00000dc        0x0 obj/mmc_xmega.o
 .mdebug.abi32  0xa00000dc        0x0 obj/matrix4.o
 .mdebug.abi32  0xa00000dc        0x0 obj/triangle.o
 .mdebug.abi32  0xa00000dc        0x0 obj/vector2.o
 .mdebug.abi32  0xa00000dc        0x0 obj/newmain.o
 .mdebug.abi32  0xa00000dc        0x0 obj/graphiclib.o
 .mdebug.abi32  0xa00000dc        0x0 obj/vector3.o
 .mdebug.abi32  0xa00000dc        0x0 obj/graphicdraw.o
 .mdebug.abi32  0xa00000dc        0x0 obj/maze.o
 .mdebug.abi32  0xa00000dc        0x0 obj/composite32-high4.o
 .mdebug.abi32  0xa00000dc        0x0 ../../pic32/compiler/pic32-tools/bin/../lib/gcc/pic32mx/4.5.2/crtend.o
 .mdebug.abi32  0xa00000dc        0x0 ../../pic32/compiler/pic32-tools/bin/../lib/gcc/pic32mx/4.5.2/crtbegin.o
 .mdebug.abi32  0xa00000dc        0x0 /home/gombe/workspace/machikania/origdev/pic32/compiler/pic32-tools/bin/../lib/gcc/pic32mx/4.5.2/../../../../pic32mx/lib/libm.a(lib_a-s_cos.o)
 .mdebug.abi32  0xa00000dc        0x0 /home/gombe/workspace/machikania/origdev/pic32/compiler/pic32-tools/bin/../lib/gcc/pic32mx/4.5.2/../../../../pic32mx/lib/libm.a(lib_a-sf_cos.o)
 .mdebug.abi32  0xa00000dc        0x0 /home/gombe/workspace/machikania/origdev/pic32/compiler/pic32-tools/bin/../lib/gcc/pic32mx/4.5.2/../../../../pic32mx/lib/libm.a(lib_a-sf_sin.o)
 .mdebug.abi32  0xa00000dc        0x0 /home/gombe/workspace/machikania/origdev/pic32/compiler/pic32-tools/bin/../lib/gcc/pic32mx/4.5.2/../../../../pic32mx/lib/libm.a(lib_a-s_sin.o)
 .mdebug.abi32  0xa00000dc        0x0 /home/gombe/workspace/machikania/origdev/pic32/compiler/pic32-tools/bin/../lib/gcc/pic32mx/4.5.2/../../../../pic32mx/lib/libm.a(lib_a-s_tan.o)
 .mdebug.abi32  0xa00000dc        0x0 /home/gombe/workspace/machikania/origdev/pic32/compiler/pic32-tools/bin/../lib/gcc/pic32mx/4.5.2/../../../../pic32mx/lib/libm.a(lib_a-ef_rem_pio2.o)
 .mdebug.abi32  0xa00000dc        0x0 /home/gombe/workspace/machikania/origdev/pic32/compiler/pic32-tools/bin/../lib/gcc/pic32mx/4.5.2/../../../../pic32mx/lib/libm.a(lib_a-e_rem_pio2.o)
 .mdebug.abi32  0xa00000dc        0x0 /home/gombe/workspace/machikania/origdev/pic32/compiler/pic32-tools/bin/../lib/gcc/pic32mx/4.5.2/../../../../pic32mx/lib/libm.a(lib_a-k_cos.o)
 .mdebug.abi32  0xa00000dc        0x0 /home/gombe/workspace/machikania/origdev/pic32/compiler/pic32-tools/bin/../lib/gcc/pic32mx/4.5.2/../../../../pic32mx/lib/libm.a(lib_a-kf_cos.o)
 .mdebug.abi32  0xa00000dc        0x0 /home/gombe/workspace/machikania/origdev/pic32/compiler/pic32-tools/bin/../lib/gcc/pic32mx/4.5.2/../../../../pic32mx/lib/libm.a(lib_a-kf_rem_pio2.o)
 .mdebug.abi32  0xa00000dc        0x0 /home/gombe/workspace/machikania/origdev/pic32/compiler/pic32-tools/bin/../lib/gcc/pic32mx/4.5.2/../../../../pic32mx/lib/libm.a(lib_a-kf_sin.o)
 .mdebug.abi32  0xa00000dc        0x0 /home/gombe/workspace/machikania/origdev/pic32/compiler/pic32-tools/bin/../lib/gcc/pic32mx/4.5.2/../../../../pic32mx/lib/libm.a(lib_a-k_rem_pio2.o)
 .mdebug.abi32  0xa00000dc        0x0 /home/gombe/workspace/machikania/origdev/pic32/compiler/pic32-tools/bin/../lib/gcc/pic32mx/4.5.2/../../../../pic32mx/lib/libm.a(lib_a-k_sin.o)
 .mdebug.abi32  0xa00000dc        0x0 /home/gombe/workspace/machikania/origdev/pic32/compiler/pic32-tools/bin/../lib/gcc/pic32mx/4.5.2/../../../../pic32mx/lib/libm.a(lib_a-k_tan.o)
 .mdebug.abi32  0xa00000dc        0x0 /home/gombe/workspace/machikania/origdev/pic32/compiler/pic32-tools/bin/../lib/gcc/pic32mx/4.5.2/../../../../pic32mx/lib/libm.a(lib_a-s_fabs.o)
 .mdebug.abi32  0xa00000dc        0x0 /home/gombe/workspace/machikania/origdev/pic32/compiler/pic32-tools/bin/../lib/gcc/pic32mx/4.5.2/../../../../pic32mx/lib/libm.a(lib_a-sf_fabs.o)
 .mdebug.abi32  0xa00000dc        0x0 /home/gombe/workspace/machikania/origdev/pic32/compiler/pic32-tools/bin/../lib/gcc/pic32mx/4.5.2/../../../../pic32mx/lib/libm.a(lib_a-sf_floor.o)
 .mdebug.abi32  0xa00000dc        0x0 /home/gombe/workspace/machikania/origdev/pic32/compiler/pic32-tools/bin/../lib/gcc/pic32mx/4.5.2/../../../../pic32mx/lib/libm.a(lib_a-s_floor.o)
 .mdebug.abi32  0xa00000dc        0x0 /home/gombe/workspace/machikania/origdev/pic32/compiler/pic32-tools/bin/../lib/gcc/pic32mx/4.5.2/../../../../pic32mx/lib/libm.a(lib_a-sf_scalbn.o)
 .mdebug.abi32  0xa00000dc        0x0 /home/gombe/workspace/machikania/origdev/pic32/compiler/pic32-tools/bin/../lib/gcc/pic32mx/4.5.2/../../../../pic32mx/lib/libm.a(lib_a-s_scalbn.o)
 .mdebug.abi32  0xa00000dc        0x0 /home/gombe/workspace/machikania/origdev/pic32/compiler/pic32-tools/bin/../lib/gcc/pic32mx/4.5.2/../../../../pic32mx/lib/libm.a(lib_a-s_copysign.o)
 .mdebug.abi32  0xa00000dc        0x0 /home/gombe/workspace/machikania/origdev/pic32/compiler/pic32-tools/bin/../lib/gcc/pic32mx/4.5.2/../../../../pic32mx/lib/libm.a(lib_a-sf_copysign.o)
 .mdebug.abi32  0xa00000dc        0x0 /home/gombe/workspace/machikania/origdev/pic32/compiler/pic32-tools/bin/../lib/gcc/pic32mx/4.5.2/libgcc.a(_divdi3.o)
 .mdebug.abi32  0xa00000dc        0x0 /home/gombe/workspace/machikania/origdev/pic32/compiler/pic32-tools/bin/../lib/gcc/pic32mx/4.5.2/libgcc.a(addsf3.o)
 .mdebug.abi32  0xa00000dc        0x0 /home/gombe/workspace/machikania/origdev/pic32/compiler/pic32-tools/bin/../lib/gcc/pic32mx/4.5.2/libgcc.a(eqsf2.o)
 .mdebug.abi32  0xa00000dc        0x0 /home/gombe/workspace/machikania/origdev/pic32/compiler/pic32-tools/bin/../lib/gcc/pic32mx/4.5.2/libgcc.a(gesf2.o)
 .mdebug.abi32  0xa00000dc        0x0 /home/gombe/workspace/machikania/origdev/pic32/compiler/pic32-tools/bin/../lib/gcc/pic32mx/4.5.2/libgcc.a(mulsf3.o)
 .mdebug.abi32  0xa00000dc        0x0 /home/gombe/workspace/machikania/origdev/pic32/compiler/pic32-tools/bin/../lib/gcc/pic32mx/4.5.2/libgcc.a(subsf3.o)
 .mdebug.abi32  0xa00000dc        0x0 /home/gombe/workspace/machikania/origdev/pic32/compiler/pic32-tools/bin/../lib/gcc/pic32mx/4.5.2/libgcc.a(fixsfsi.o)
 .mdebug.abi32  0xa00000dc        0x0 /home/gombe/workspace/machikania/origdev/pic32/compiler/pic32-tools/bin/../lib/gcc/pic32mx/4.5.2/libgcc.a(floatsisf.o)
 .mdebug.abi32  0xa00000dc        0x0 /home/gombe/workspace/machikania/origdev/pic32/compiler/pic32-tools/bin/../lib/gcc/pic32mx/4.5.2/libgcc.a(floatunsisf.o)
 .mdebug.abi32  0xa00000dc        0x0 /home/gombe/workspace/machikania/origdev/pic32/compiler/pic32-tools/bin/../lib/gcc/pic32mx/4.5.2/libgcc.a(adddf3.o)
 .mdebug.abi32  0xa00000dc        0x0 /home/gombe/workspace/machikania/origdev/pic32/compiler/pic32-tools/bin/../lib/gcc/pic32mx/4.5.2/libgcc.a(divdf3.o)
 .mdebug.abi32  0xa00000dc        0x0 /home/gombe/workspace/machikania/origdev/pic32/compiler/pic32-tools/bin/../lib/gcc/pic32mx/4.5.2/libgcc.a(eqdf2.o)
 .mdebug.abi32  0xa00000dc        0x0 /home/gombe/workspace/machikania/origdev/pic32/compiler/pic32-tools/bin/../lib/gcc/pic32mx/4.5.2/libgcc.a(gedf2.o)
 .mdebug.abi32  0xa00000dc        0x0 /home/gombe/workspace/machikania/origdev/pic32/compiler/pic32-tools/bin/../lib/gcc/pic32mx/4.5.2/libgcc.a(muldf3.o)
 .mdebug.abi32  0xa00000dc        0x0 /home/gombe/workspace/machikania/origdev/pic32/compiler/pic32-tools/bin/../lib/gcc/pic32mx/4.5.2/libgcc.a(subdf3.o)
 .mdebug.abi32  0xa00000dc        0x0 /home/gombe/workspace/machikania/origdev/pic32/compiler/pic32-tools/bin/../lib/gcc/pic32mx/4.5.2/libgcc.a(fixdfsi.o)
 .mdebug.abi32  0xa00000dc        0x0 /home/gombe/workspace/machikania/origdev/pic32/compiler/pic32-tools/bin/../lib/gcc/pic32mx/4.5.2/libgcc.a(floatsidf.o)
 .mdebug.abi32  0xa00000dc        0x0 /home/gombe/workspace/machikania/origdev/pic32/compiler/pic32-tools/bin/../lib/gcc/pic32mx/4.5.2/libgcc.a(floatunsidf.o)
 .mdebug.abi32  0xa00000dc        0x0 /home/gombe/workspace/machikania/origdev/pic32/compiler/pic32-tools/bin/../lib/gcc/pic32mx/4.5.2/libgcc.a(extendsfdf2.o)
 .mdebug.abi32  0xa00000dc        0x0 /home/gombe/workspace/machikania/origdev/pic32/compiler/pic32-tools/bin/../lib/gcc/pic32mx/4.5.2/libgcc.a(truncdfsf2.o)
 .mdebug.abi32  0xa00000dc        0x0 /home/gombe/workspace/machikania/origdev/pic32/compiler/pic32-tools/bin/../lib/gcc/pic32mx/4.5.2/../../../../pic32mx/lib/libc.a(lib_a-assert.o)
 .mdebug.abi32  0xa00000dc        0x0 /home/gombe/workspace/machikania/origdev/pic32/compiler/pic32-tools/bin/../lib/gcc/pic32mx/4.5.2/../../../../pic32mx/lib/libc.a(lib_a-fiprintf.o)
 .mdebug.abi32  0xa00000dc        0x0 /home/gombe/workspace/machikania/origdev/pic32/compiler/pic32-tools/bin/../lib/gcc/pic32mx/4.5.2/../../../../pic32mx/lib/libc.a(lib_a-impure.o)
 .mdebug.abi32  0xa00000dc        0x0 /home/gombe/workspace/machikania/origdev/pic32/compiler/pic32-tools/bin/../lib/gcc/pic32mx/4.5.2/../../../../pic32mx/lib/libc.a(lib_a-printf.o)
 .mdebug.abi32  0xa00000dc        0x0 /home/gombe/workspace/machikania/origdev/pic32/compiler/pic32-tools/bin/../lib/gcc/pic32mx/4.5.2/../../../../pic32mx/lib/libc.a(lib_a-vfiprintf.o)
 .mdebug.abi32  0xa00000dc        0x0 /home/gombe/workspace/machikania/origdev/pic32/compiler/pic32-tools/bin/../lib/gcc/pic32mx/4.5.2/../../../../pic32mx/lib/libc.a(lib_a-vfprintf.o)
 .mdebug.abi32  0xa00000dc        0x0 /home/gombe/workspace/machikania/origdev/pic32/compiler/pic32-tools/bin/../lib/gcc/pic32mx/4.5.2/../../../../pic32mx/lib/libc.a(lib_a-wsetup.o)
 .mdebug.abi32  0xa00000dc        0x0 /home/gombe/workspace/machikania/origdev/pic32/compiler/pic32-tools/bin/../lib/gcc/pic32mx/4.5.2/../../../../pic32mx/lib/libc.a(lib_a-abort.o)
 .mdebug.abi32  0xa00000dc        0x0 /home/gombe/workspace/machikania/origdev/pic32/compiler/pic32-tools/bin/../lib/gcc/pic32mx/4.5.2/../../../../pic32mx/lib/libc.a(lib_a-dtoa.o)
 .mdebug.abi32  0xa00000dc        0x0 /home/gombe/workspace/machikania/origdev/pic32/compiler/pic32-tools/bin/../lib/gcc/pic32mx/4.5.2/../../../../pic32mx/lib/libc.a(lib_a-fflush.o)
 .mdebug.abi32  0xa00000dc        0x0 /home/gombe/workspace/machikania/origdev/pic32/compiler/pic32-tools/bin/../lib/gcc/pic32mx/4.5.2/../../../../pic32mx/lib/libc.a(lib_a-findfp.o)
 .mdebug.abi32  0xa00000dc        0x0 /home/gombe/workspace/machikania/origdev/pic32/compiler/pic32-tools/bin/../lib/gcc/pic32mx/4.5.2/../../../../pic32mx/lib/libc.a(lib_a-fputwc.o)
 .mdebug.abi32  0xa00000dc        0x0 /home/gombe/workspace/machikania/origdev/pic32/compiler/pic32-tools/bin/../lib/gcc/pic32mx/4.5.2/../../../../pic32mx/lib/libc.a(lib_a-freer.o)
 .mdebug.abi32  0xa00000dc        0x0 /home/gombe/workspace/machikania/origdev/pic32/compiler/pic32-tools/bin/../lib/gcc/pic32mx/4.5.2/../../../../pic32mx/lib/libc.a(lib_a-fvwrite.o)
 .mdebug.abi32  0xa00000dc        0x0 /home/gombe/workspace/machikania/origdev/pic32/compiler/pic32-tools/bin/../lib/gcc/pic32mx/4.5.2/../../../../pic32mx/lib/libc.a(lib_a-fwalk.o)
 .mdebug.abi32  0xa00000dc        0x0 /home/gombe/workspace/machikania/origdev/pic32/compiler/pic32-tools/bin/../lib/gcc/pic32mx/4.5.2/../../../../pic32mx/lib/libc.a(lib_a-locale.o)
 .mdebug.abi32  0xa00000dc        0x0 /home/gombe/workspace/machikania/origdev/pic32/compiler/pic32-tools/bin/../lib/gcc/pic32mx/4.5.2/../../../../pic32mx/lib/libc.a(lib_a-makebuf.o)
 .mdebug.abi32  0xa00000dc        0x0 /home/gombe/workspace/machikania/origdev/pic32/compiler/pic32-tools/bin/../lib/gcc/pic32mx/4.5.2/../../../../pic32mx/lib/libc.a(lib_a-mallocr.o)
 .mdebug.abi32  0xa00000dc        0x0 /home/gombe/workspace/machikania/origdev/pic32/compiler/pic32-tools/bin/../lib/gcc/pic32mx/4.5.2/../../../../pic32mx/lib/libc.a(lib_a-memchr.o)
 .mdebug.abi32  0xa00000dc        0x0 /home/gombe/workspace/machikania/origdev/pic32/compiler/pic32-tools/bin/../lib/gcc/pic32mx/4.5.2/../../../../pic32mx/lib/libc.a(lib_a-memcpy.o)
 .mdebug.abi32  0xa00000dc        0x0 /home/gombe/workspace/machikania/origdev/pic32/compiler/pic32-tools/bin/../lib/gcc/pic32mx/4.5.2/../../../../pic32mx/lib/libc.a(lib_a-memmove.o)
 .mdebug.abi32  0xa00000dc        0x0 /home/gombe/workspace/machikania/origdev/pic32/compiler/pic32-tools/bin/../lib/gcc/pic32mx/4.5.2/../../../../pic32mx/lib/libc.a(lib_a-memset.o)
 .mdebug.abi32  0xa00000dc        0x0 /home/gombe/workspace/machikania/origdev/pic32/compiler/pic32-tools/bin/../lib/gcc/pic32mx/4.5.2/../../../../pic32mx/lib/libc.a(lib_a-mlock.o)
 .mdebug.abi32  0xa00000dc        0x0 /home/gombe/workspace/machikania/origdev/pic32/compiler/pic32-tools/bin/../lib/gcc/pic32mx/4.5.2/../../../../pic32mx/lib/libc.a(lib_a-mprec.o)
 .mdebug.abi32  0xa00000dc        0x0 /home/gombe/workspace/machikania/origdev/pic32/compiler/pic32-tools/bin/../lib/gcc/pic32mx/4.5.2/../../../../pic32mx/lib/libc.a(lib_a-reallocr.o)
 .mdebug.abi32  0xa00000dc        0x0 /home/gombe/workspace/machikania/origdev/pic32/compiler/pic32-tools/bin/../lib/gcc/pic32mx/4.5.2/../../../../pic32mx/lib/libc.a(lib_a-sbrkr.o)
 .mdebug.abi32  0xa00000dc        0x0 /home/gombe/workspace/machikania/origdev/pic32/compiler/pic32-tools/bin/../lib/gcc/pic32mx/4.5.2/../../../../pic32mx/lib/libc.a(lib_a-s_fpclassify.o)
 .mdebug.abi32  0xa00000dc        0x0 /home/gombe/workspace/machikania/origdev/pic32/compiler/pic32-tools/bin/../lib/gcc/pic32mx/4.5.2/../../../../pic32mx/lib/libc.a(lib_a-signal.o)
 .mdebug.abi32  0xa00000dc        0x0 /home/gombe/workspace/machikania/origdev/pic32/compiler/pic32-tools/bin/../lib/gcc/pic32mx/4.5.2/../../../../pic32mx/lib/libc.a(lib_a-signalr.o)
 .mdebug.abi32  0xa00000dc        0x0 /home/gombe/workspace/machikania/origdev/pic32/compiler/pic32-tools/bin/../lib/gcc/pic32mx/4.5.2/../../../../pic32mx/lib/libc.a(lib_a-stdio.o)
 .mdebug.abi32  0xa00000dc        0x0 /home/gombe/workspace/machikania/origdev/pic32/compiler/pic32-tools/bin/../lib/gcc/pic32mx/4.5.2/../../../../pic32mx/lib/libc.a(lib_a-strcmp.o)
 .mdebug.abi32  0xa00000dc        0x0 /home/gombe/workspace/machikania/origdev/pic32/compiler/pic32-tools/bin/../lib/gcc/pic32mx/4.5.2/../../../../pic32mx/lib/libc.a(lib_a-strlen.o)
 .mdebug.abi32  0xa00000dc        0x0 /home/gombe/workspace/machikania/origdev/pic32/compiler/pic32-tools/bin/../lib/gcc/pic32mx/4.5.2/../../../../pic32mx/lib/libc.a(lib_a-wbuf.o)
 .mdebug.abi32  0xa00000dc        0x0 /home/gombe/workspace/machikania/origdev/pic32/compiler/pic32-tools/bin/../lib/gcc/pic32mx/4.5.2/../../../../pic32mx/lib/libc.a(lib_a-wcrtomb.o)
 .mdebug.abi32  0xa00000dc        0x0 /home/gombe/workspace/machikania/origdev/pic32/compiler/pic32-tools/bin/../lib/gcc/pic32mx/4.5.2/../../../../pic32mx/lib/libc.a(lib_a-wctomb_r.o)
 .mdebug.abi32  0xa00000dc        0x0 /home/gombe/workspace/machikania/origdev/pic32/compiler/pic32-tools/bin/../lib/gcc/pic32mx/4.5.2/../../../../pic32mx/lib/libc.a(lib_a-writer.o)
 .mdebug.abi32  0xa00000dc        0x0 /home/gombe/workspace/machikania/origdev/pic32/compiler/pic32-tools/bin/../lib/gcc/pic32mx/4.5.2/../../../../pic32mx/lib/libc.a(lib_a-callocr.o)
 .mdebug.abi32  0xa00000dc        0x0 /home/gombe/workspace/machikania/origdev/pic32/compiler/pic32-tools/bin/../lib/gcc/pic32mx/4.5.2/../../../../pic32mx/lib/libc.a(lib_a-closer.o)
 .mdebug.abi32  0xa00000dc        0x0 /home/gombe/workspace/machikania/origdev/pic32/compiler/pic32-tools/bin/../lib/gcc/pic32mx/4.5.2/../../../../pic32mx/lib/libc.a(lib_a-fclose.o)
 .mdebug.abi32  0xa00000dc        0x0 /home/gombe/workspace/machikania/origdev/pic32/compiler/pic32-tools/bin/../lib/gcc/pic32mx/4.5.2/../../../../pic32mx/lib/libc.a(lib_a-fstatr.o)
 .mdebug.abi32  0xa00000dc        0x0 /home/gombe/workspace/machikania/origdev/pic32/compiler/pic32-tools/bin/../lib/gcc/pic32mx/4.5.2/../../../../pic32mx/lib/libc.a(lib_a-isattyr.o)
 .mdebug.abi32  0xa00000dc        0x0 /home/gombe/workspace/machikania/origdev/pic32/compiler/pic32-tools/bin/../lib/gcc/pic32mx/4.5.2/../../../../pic32mx/lib/libc.a(lib_a-lseekr.o)
 .mdebug.abi32  0xa00000dc        0x0 /home/gombe/workspace/machikania/origdev/pic32/compiler/pic32-tools/bin/../lib/gcc/pic32mx/4.5.2/../../../../pic32mx/lib/libc.a(lib_a-readr.o)
 .mdebug.abi32  0xa00000dc        0x0 /home/gombe/workspace/machikania/origdev/pic32/compiler/pic32-tools/bin/../lib/gcc/pic32mx/4.5.2/../../../../pic32mx/lib/libc.a(lib_a-reent.o)
 .mdebug.abi32  0xa00000dc        0x0 /home/gombe/workspace/machikania/origdev/pic32/compiler/pic32-tools/bin/../lib/gcc/pic32mx/4.5.2/../../../../pic32mx/lib/libpic32.a(sbrk.o)
 .mdebug.abi32  0xa00000dc        0x0 /home/gombe/workspace/machikania/origdev/pic32/compiler/pic32-tools/bin/../lib/gcc/pic32mx/4.5.2/../../../../pic32mx/lib/libpic32.a(default-bootstrap-exception-handler.o)
 .mdebug.abi32  0xa00000dc        0x0 /home/gombe/workspace/machikania/origdev/pic32/compiler/pic32-tools/bin/../lib/gcc/pic32mx/4.5.2/../../../../pic32mx/lib/libpic32.a(default-on-reset.o)
 .mdebug.abi32  0xa00000dc        0x0 /home/gombe/workspace/machikania/origdev/pic32/compiler/pic32-tools/bin/../lib/gcc/pic32mx/4.5.2/../../../../pic32mx/lib/libpic32.a(default-on-bootstrap.o)
 .mdebug.abi32  0xa00000dc        0x0 /home/gombe/workspace/machikania/origdev/pic32/compiler/pic32-tools/bin/../lib/gcc/pic32mx/4.5.2/../../../../pic32mx/lib/libpic32.a(_exit.o)
 .mdebug.abi32  0xa00000dc        0x0 /home/gombe/workspace/machikania/origdev/pic32/compiler/pic32-tools/bin/../lib/gcc/pic32mx/4.5.2/../../../../pic32mx/lib/libpic32.a(isatty.o)
 .mdebug.abi32  0xa00000dc        0x0 /home/gombe/workspace/machikania/origdev/pic32/compiler/pic32-tools/bin/../lib/gcc/pic32mx/4.5.2/../../../../pic32mx/lib/libpic32.a(read.o)
 .mdebug.abi32  0xa00000dc        0x0 /home/gombe/workspace/machikania/origdev/pic32/compiler/pic32-tools/bin/../lib/gcc/pic32mx/4.5.2/../../../../pic32mx/lib/libpic32.a(write.o)
 .mdebug.abi32  0xa00000dc        0x0 /home/gombe/workspace/machikania/origdev/pic32/compiler/pic32-tools/bin/../lib/gcc/pic32mx/4.5.2/../../../../pic32mx/lib/libpic32.a(lseek.o)
 .mdebug.abi32  0xa00000dc        0x0 /home/gombe/workspace/machikania/origdev/pic32/compiler/pic32-tools/bin/../lib/gcc/pic32mx/4.5.2/../../../../pic32mx/lib/libpic32.a(close.o)
 .mdebug.abi32  0xa00000dc        0x0 /home/gombe/workspace/machikania/origdev/pic32/compiler/pic32-tools/bin/../lib/gcc/pic32mx/4.5.2/../../../../pic32mx/lib/libpic32.a(fstat.o)
 .mdebug.abi32  0xa00000dc        0x0 /home/gombe/workspace/machikania/origdev/pic32/compiler/pic32-tools/bin/../lib/gcc/pic32mx/4.5.2/../../../../pic32mx/lib/libpic32.a(kill.o)
 .mdebug.abi32  0xa00000dc        0x0 /home/gombe/workspace/machikania/origdev/pic32/compiler/pic32-tools/bin/../lib/gcc/pic32mx/4.5.2/../../../../pic32mx/lib/libpic32.a(getpid.o)
 .mdebug.abi32  0xa00000dc        0x0 /home/gombe/workspace/machikania/origdev/pic32/compiler/pic32-tools/bin/../lib/gcc/pic32mx/4.5.2/../../../../pic32mx/lib/libpic32.a(xc32_uart.o)
 .mdebug.abi32  0xa00000dc        0x0 /home/gombe/workspace/machikania/origdev/pic32/compiler/pic32-tools/bin/../lib/gcc/pic32mx/4.5.2/../../../../pic32mx/lib/libpic32.a(_mon_putc.o)
 .mdebug.abi32  0xa00000dc        0x0 /home/gombe/workspace/machikania/origdev/pic32/compiler/pic32-tools/bin/../lib/gcc/pic32mx/4.5.2/../../../../pic32mx/lib/libpic32.a(defaultinterrupt.o)
 .mdebug.abi32  0xa00000dc        0x0 /home/gombe/workspace/machikania/origdev/pic32/compiler/pic32-tools/bin/../lib/gcc/pic32mx/4.5.2/libgcc.a(_udivdi3.o)
 .mdebug.abi32  0xa00000dc        0x0 /home/gombe/workspace/machikania/origdev/pic32/compiler/pic32-tools/bin/../lib/gcc/pic32mx/4.5.2/libgcc.a(_umoddi3.o)
 .mdebug.abi32  0xa00000dc        0x0 /home/gombe/workspace/machikania/origdev/pic32/compiler/pic32-tools/bin/../lib/gcc/pic32mx/4.5.2/libgcc.a(ledf2.o)
 .mdebug.abi32  0xa00000dc        0x0 /home/gombe/workspace/machikania/origdev/pic32/compiler/pic32-tools/bin/../lib/gcc/pic32mx/4.5.2/../../../../pic32mx/lib/libmchp_peripheral_32MX250F128B.a(osc_config_lib.o)
 .mdebug.abi32  0xa00000dc        0x0 /home/gombe/workspace/machikania/origdev/pic32/compiler/pic32-tools/bin/../lib/gcc/pic32mx/4.5.2/../../../../pic32mx/lib/libmchp_peripheral_32MX250F128B.a(int_disable_interrupts_lib.o)
 .mdebug.abi32  0xa00000dc        0x0 /home/gombe/workspace/machikania/origdev/pic32/compiler/pic32-tools/bin/../lib/gcc/pic32mx/4.5.2/../../../../pic32mx/lib/libmchp_peripheral_32MX250F128B.a(int_restore_interrupts_lib.o)
 .mdebug.abi32  0xa00000dc        0x0 /home/gombe/workspace/machikania/origdev/pic32/compiler/pic32-tools/bin/../lib/gcc/pic32mx/4.5.2/../../../../pic32mx/lib/libmchp_peripheral_32MX250F128B.a(int_enable_mv_int_lib.o)
 .mdebug.abi32  0xa00000dc        0x0 /home/gombe/workspace/machikania/origdev/pic32/compiler/pic32-tools/bin/../lib/gcc/pic32mx/4.5.2/../../../../pic32mx/lib/libmchp_peripheral_32MX250F128B.a(spi_getc_spi2_lib_legacy.o)
 .mdebug.abi32  0xa00000dc        0x0 /home/gombe/workspace/machikania/origdev/pic32/compiler/pic32-tools/bin/../lib/gcc/pic32mx/4.5.2/../../../../pic32mx/lib/libmchp_peripheral_32MX250F128B.a(spi_open_spi2_lib_legacy.o)
 .mdebug.abi32  0xa00000dc        0x0 /home/gombe/workspace/machikania/origdev/pic32/compiler/pic32-tools/bin/../lib/gcc/pic32mx/4.5.2/../../../../pic32mx/lib/libmchp_peripheral_32MX250F128B.a(spi_brg_tbl_lib_legacy.o)
 .mdebug.abi32  0xa00000dc        0x0 /home/gombe/workspace/machikania/origdev/pic32/compiler/pic32-tools/bin/../lib/gcc/pic32mx/4.5.2/../../../../pic32mx/lib/libmchp_peripheral_32MX250F128B.a(dma_chn_clr_ev_flags_lib.o)
 .mdebug.abi32  0xa00000dc        0x0 /home/gombe/workspace/machikania/origdev/pic32/compiler/pic32-tools/bin/../lib/gcc/pic32mx/4.5.2/../../../../pic32mx/lib/libmchp_peripheral_32MX250F128B.a(dma_chn_open_lib.o)
 .mdebug.abi32  0xa00000dc        0x0 /home/gombe/workspace/machikania/origdev/pic32/compiler/pic32-tools/bin/../lib/gcc/pic32mx/4.5.2/../../../../pic32mx/lib/libmchp_peripheral_32MX250F128B.a(dma_chn_enable_lib.o)
 .mdebug.abi32  0xa00000dc        0x0 /home/gombe/workspace/machikania/origdev/pic32/compiler/pic32-tools/bin/../lib/gcc/pic32mx/4.5.2/../../../../pic32mx/lib/libmchp_peripheral_32MX250F128B.a(dma_chn_get_ev_flags_lib.o)
 .mdebug.abi32  0xa00000dc        0x0 /home/gombe/workspace/machikania/origdev/pic32/compiler/pic32-tools/bin/../lib/gcc/pic32mx/4.5.2/../../../../pic32mx/lib/libmchp_peripheral_32MX250F128B.a(dma_chn_write_event_control_flags_lib.o)
 .mdebug.abi32  0xa00000dc        0x0 /home/gombe/workspace/machikania/origdev/pic32/compiler/pic32-tools/bin/../lib/gcc/pic32mx/4.5.2/../../../../pic32mx/lib/libmchp_peripheral_32MX250F128B.a(dma_chn_set_txfer_lib.o)
 .mdebug.abi32  0xa00000dc        0x0 /home/gombe/workspace/machikania/origdev/pic32/compiler/pic32-tools/bin/../lib/gcc/pic32mx/4.5.2/../../../../pic32mx/lib/libmchp_peripheral_32MX250F128B.a(dma_chn_start_txfer_lib.o)
 .mdebug.abi32  0xa00000dc        0x0 /home/gombe/workspace/machikania/origdev/pic32/compiler/pic32-tools/bin/../lib/gcc/pic32mx/4.5.2/../../../../pic32mx/lib/libmchp_peripheral_32MX250F128B.a(dma_reg_map_tbl_lib.o)
 .mdebug.abi32  0xa00000dc        0x0 /home/gombe/workspace/machikania/origdev/pic32/compiler/pic32-tools/bin/../lib/gcc/pic32mx/4.5.2/../../../../pic32mx/lib/libmchp_peripheral_32MX250F128B.a(int_enable_interrupts_lib.o)
 .mdebug.abi32  0xa00000dc        0x0 /home/gombe/workspace/machikania/origdev/pic32/compiler/pic32-tools/bin/../lib/gcc/pic32mx/4.5.2/../../../../pic32mx/lib/libmchp_peripheral_32MX250F128B.a(int_tbl_lib.o)
 .mdebug.abi32  0xa00000dc        0x0 /home/gombe/workspace/machikania/origdev/pic32/compiler/pic32-tools/bin/../lib/gcc/pic32mx/4.5.2/../../../../pic32mx/lib/libc.a(lib_a-errno.o)

.mdebug.abiN32
 *(.mdebug.abiN32)

.mdebug.abi64
 *(.mdebug.abi64)

.mdebug.abiO64
 *(.mdebug.abiO64)

.mdebug.eabi32
 *(.mdebug.eabi32)

.mdebug.eabi64
 *(.mdebug.eabi64)

.gcc_compiled_long32
 *(.gcc_compiled_long32)

.gcc_compiled_long64
 *(.gcc_compiled_long64)

.stab
 *(.stab)

.stabstr
 *(.stabstr)

.stab.excl
 *(.stab.excl)

.stab.exclstr
 *(.stab.exclstr)

.stab.index
 *(.stab.index)

.stab.indexstr
 *(.stab.indexstr)

.comment        0x00000000      0x110
 *(.comment)
 .comment       0x00000000       0x3b obj/xprintf.o
                                 0x3c (size before relaxing)
 .comment       0x00000000       0x3c obj/ff.o
 .comment       0x00000000       0x3c obj/mmc_xmega.o
 .comment       0x00000000       0x3c obj/matrix4.o
 .comment       0x00000000       0x3c obj/triangle.o
 .comment       0x00000000       0x3c obj/vector2.o
 .comment       0x00000000       0x3c obj/newmain.o
 .comment       0x00000000       0x3c obj/graphiclib.o
 .comment       0x00000000       0x3c obj/vector3.o
 .comment       0x00000000       0x3c obj/graphicdraw.o
 .comment       0x00000000       0x3c obj/maze.o
 .comment       0x00000000       0x3c obj/composite32-high4.o
 .comment       0x00000000       0x3c ../../pic32/compiler/pic32-tools/bin/../lib/gcc/pic32mx/4.5.2/crtend.o
 .comment       0x00000000       0x3c ../../pic32/compiler/pic32-tools/bin/../lib/gcc/pic32mx/4.5.2/crtbegin.o
 .comment       0x00000000       0x3c /home/gombe/workspace/machikania/origdev/pic32/compiler/pic32-tools/bin/../lib/gcc/pic32mx/4.5.2/../../../../pic32mx/lib/libm.a(lib_a-s_cos.o)
 .comment       0x00000000       0x3c /home/gombe/workspace/machikania/origdev/pic32/compiler/pic32-tools/bin/../lib/gcc/pic32mx/4.5.2/../../../../pic32mx/lib/libm.a(lib_a-sf_cos.o)
 .comment       0x00000000       0x3c /home/gombe/workspace/machikania/origdev/pic32/compiler/pic32-tools/bin/../lib/gcc/pic32mx/4.5.2/../../../../pic32mx/lib/libm.a(lib_a-sf_sin.o)
 .comment       0x00000000       0x3c /home/gombe/workspace/machikania/origdev/pic32/compiler/pic32-tools/bin/../lib/gcc/pic32mx/4.5.2/../../../../pic32mx/lib/libm.a(lib_a-s_sin.o)
 .comment       0x00000000       0x3c /home/gombe/workspace/machikania/origdev/pic32/compiler/pic32-tools/bin/../lib/gcc/pic32mx/4.5.2/../../../../pic32mx/lib/libm.a(lib_a-s_tan.o)
 .comment       0x00000000       0x3c /home/gombe/workspace/machikania/origdev/pic32/compiler/pic32-tools/bin/../lib/gcc/pic32mx/4.5.2/../../../../pic32mx/lib/libm.a(lib_a-ef_rem_pio2.o)
 .comment       0x00000000       0x3c /home/gombe/workspace/machikania/origdev/pic32/compiler/pic32-tools/bin/../lib/gcc/pic32mx/4.5.2/../../../../pic32mx/lib/libm.a(lib_a-e_rem_pio2.o)
 .comment       0x00000000       0x3c /home/gombe/workspace/machikania/origdev/pic32/compiler/pic32-tools/bin/../lib/gcc/pic32mx/4.5.2/../../../../pic32mx/lib/libm.a(lib_a-k_cos.o)
 .comment       0x00000000       0x3c /home/gombe/workspace/machikania/origdev/pic32/compiler/pic32-tools/bin/../lib/gcc/pic32mx/4.5.2/../../../../pic32mx/lib/libm.a(lib_a-kf_cos.o)
 .comment       0x00000000       0x3c /home/gombe/workspace/machikania/origdev/pic32/compiler/pic32-tools/bin/../lib/gcc/pic32mx/4.5.2/../../../../pic32mx/lib/libm.a(lib_a-kf_rem_pio2.o)
 .comment       0x00000000       0x3c /home/gombe/workspace/machikania/origdev/pic32/compiler/pic32-tools/bin/../lib/gcc/pic32mx/4.5.2/../../../../pic32mx/lib/libm.a(lib_a-kf_sin.o)
 .comment       0x00000000       0x3c /home/gombe/workspace/machikania/origdev/pic32/compiler/pic32-tools/bin/../lib/gcc/pic32mx/4.5.2/../../../../pic32mx/lib/libm.a(lib_a-k_rem_pio2.o)
 .comment       0x00000000       0x3c /home/gombe/workspace/machikania/origdev/pic32/compiler/pic32-tools/bin/../lib/gcc/pic32mx/4.5.2/../../../../pic32mx/lib/libm.a(lib_a-k_sin.o)
 .comment       0x00000000       0x3c /home/gombe/workspace/machikania/origdev/pic32/compiler/pic32-tools/bin/../lib/gcc/pic32mx/4.5.2/../../../../pic32mx/lib/libm.a(lib_a-k_tan.o)
 .comment       0x00000000       0x3c /home/gombe/workspace/machikania/origdev/pic32/compiler/pic32-tools/bin/../lib/gcc/pic32mx/4.5.2/../../../../pic32mx/lib/libm.a(lib_a-s_fabs.o)
 .comment       0x00000000       0x3c /home/gombe/workspace/machikania/origdev/pic32/compiler/pic32-tools/bin/../lib/gcc/pic32mx/4.5.2/../../../../pic32mx/lib/libm.a(lib_a-sf_fabs.o)
 .comment       0x00000000       0x3c /home/gombe/workspace/machikania/origdev/pic32/compiler/pic32-tools/bin/../lib/gcc/pic32mx/4.5.2/../../../../pic32mx/lib/libm.a(lib_a-sf_floor.o)
 .comment       0x00000000       0x3c /home/gombe/workspace/machikania/origdev/pic32/compiler/pic32-tools/bin/../lib/gcc/pic32mx/4.5.2/../../../../pic32mx/lib/libm.a(lib_a-s_floor.o)
 .comment       0x00000000       0x3c /home/gombe/workspace/machikania/origdev/pic32/compiler/pic32-tools/bin/../lib/gcc/pic32mx/4.5.2/../../../../pic32mx/lib/libm.a(lib_a-sf_scalbn.o)
 .comment       0x00000000       0x3c /home/gombe/workspace/machikania/origdev/pic32/compiler/pic32-tools/bin/../lib/gcc/pic32mx/4.5.2/../../../../pic32mx/lib/libm.a(lib_a-s_scalbn.o)
 .comment       0x00000000       0x3c /home/gombe/workspace/machikania/origdev/pic32/compiler/pic32-tools/bin/../lib/gcc/pic32mx/4.5.2/../../../../pic32mx/lib/libm.a(lib_a-s_copysign.o)
 .comment       0x00000000       0x3c /home/gombe/workspace/machikania/origdev/pic32/compiler/pic32-tools/bin/../lib/gcc/pic32mx/4.5.2/../../../../pic32mx/lib/libm.a(lib_a-sf_copysign.o)
 .comment       0x00000000       0x3c /home/gombe/workspace/machikania/origdev/pic32/compiler/pic32-tools/bin/../lib/gcc/pic32mx/4.5.2/libgcc.a(_divdi3.o)
 .comment       0x00000000       0x3c /home/gombe/workspace/machikania/origdev/pic32/compiler/pic32-tools/bin/../lib/gcc/pic32mx/4.5.2/libgcc.a(addsf3.o)
 .comment       0x00000000       0x3c /home/gombe/workspace/machikania/origdev/pic32/compiler/pic32-tools/bin/../lib/gcc/pic32mx/4.5.2/libgcc.a(eqsf2.o)
 .comment       0x00000000       0x3c /home/gombe/workspace/machikania/origdev/pic32/compiler/pic32-tools/bin/../lib/gcc/pic32mx/4.5.2/libgcc.a(gesf2.o)
 .comment       0x00000000       0x3c /home/gombe/workspace/machikania/origdev/pic32/compiler/pic32-tools/bin/../lib/gcc/pic32mx/4.5.2/libgcc.a(mulsf3.o)
 .comment       0x00000000       0x3c /home/gombe/workspace/machikania/origdev/pic32/compiler/pic32-tools/bin/../lib/gcc/pic32mx/4.5.2/libgcc.a(subsf3.o)
 .comment       0x00000000       0x3c /home/gombe/workspace/machikania/origdev/pic32/compiler/pic32-tools/bin/../lib/gcc/pic32mx/4.5.2/libgcc.a(fixsfsi.o)
 .comment       0x00000000       0x3c /home/gombe/workspace/machikania/origdev/pic32/compiler/pic32-tools/bin/../lib/gcc/pic32mx/4.5.2/libgcc.a(floatsisf.o)
 .comment       0x00000000       0x3c /home/gombe/workspace/machikania/origdev/pic32/compiler/pic32-tools/bin/../lib/gcc/pic32mx/4.5.2/libgcc.a(floatunsisf.o)
 .comment       0x00000000       0x3c /home/gombe/workspace/machikania/origdev/pic32/compiler/pic32-tools/bin/../lib/gcc/pic32mx/4.5.2/libgcc.a(adddf3.o)
 .comment       0x00000000       0x3c /home/gombe/workspace/machikania/origdev/pic32/compiler/pic32-tools/bin/../lib/gcc/pic32mx/4.5.2/libgcc.a(divdf3.o)
 .comment       0x00000000       0x3c /home/gombe/workspace/machikania/origdev/pic32/compiler/pic32-tools/bin/../lib/gcc/pic32mx/4.5.2/libgcc.a(eqdf2.o)
 .comment       0x00000000       0x3c /home/gombe/workspace/machikania/origdev/pic32/compiler/pic32-tools/bin/../lib/gcc/pic32mx/4.5.2/libgcc.a(gedf2.o)
 .comment       0x00000000       0x3c /home/gombe/workspace/machikania/origdev/pic32/compiler/pic32-tools/bin/../lib/gcc/pic32mx/4.5.2/libgcc.a(muldf3.o)
 .comment       0x00000000       0x3c /home/gombe/workspace/machikania/origdev/pic32/compiler/pic32-tools/bin/../lib/gcc/pic32mx/4.5.2/libgcc.a(subdf3.o)
 .comment       0x00000000       0x3c /home/gombe/workspace/machikania/origdev/pic32/compiler/pic32-tools/bin/../lib/gcc/pic32mx/4.5.2/libgcc.a(fixdfsi.o)
 .comment       0x00000000       0x3c /home/gombe/workspace/machikania/origdev/pic32/compiler/pic32-tools/bin/../lib/gcc/pic32mx/4.5.2/libgcc.a(floatsidf.o)
 .comment       0x00000000       0x3c /home/gombe/workspace/machikania/origdev/pic32/compiler/pic32-tools/bin/../lib/gcc/pic32mx/4.5.2/libgcc.a(floatunsidf.o)
 .comment       0x00000000       0x3c /home/gombe/workspace/machikania/origdev/pic32/compiler/pic32-tools/bin/../lib/gcc/pic32mx/4.5.2/libgcc.a(extendsfdf2.o)
 .comment       0x00000000       0x3c /home/gombe/workspace/machikania/origdev/pic32/compiler/pic32-tools/bin/../lib/gcc/pic32mx/4.5.2/libgcc.a(truncdfsf2.o)
 .comment       0x00000000       0x3c /home/gombe/workspace/machikania/origdev/pic32/compiler/pic32-tools/bin/../lib/gcc/pic32mx/4.5.2/../../../../pic32mx/lib/libc.a(lib_a-assert.o)
 .comment       0x00000000       0x3c /home/gombe/workspace/machikania/origdev/pic32/compiler/pic32-tools/bin/../lib/gcc/pic32mx/4.5.2/../../../../pic32mx/lib/libc.a(lib_a-fiprintf.o)
 .comment       0x00000000       0x3c /home/gombe/workspace/machikania/origdev/pic32/compiler/pic32-tools/bin/../lib/gcc/pic32mx/4.5.2/../../../../pic32mx/lib/libc.a(lib_a-impure.o)
 .comment       0x00000000       0x3c /home/gombe/workspace/machikania/origdev/pic32/compiler/pic32-tools/bin/../lib/gcc/pic32mx/4.5.2/../../../../pic32mx/lib/libc.a(lib_a-printf.o)
 .comment       0x00000000       0x3c /home/gombe/workspace/machikania/origdev/pic32/compiler/pic32-tools/bin/../lib/gcc/pic32mx/4.5.2/../../../../pic32mx/lib/libc.a(lib_a-vfiprintf.o)
 .comment       0x00000000       0x3c /home/gombe/workspace/machikania/origdev/pic32/compiler/pic32-tools/bin/../lib/gcc/pic32mx/4.5.2/../../../../pic32mx/lib/libc.a(lib_a-vfprintf.o)
 .comment       0x00000000       0x3c /home/gombe/workspace/machikania/origdev/pic32/compiler/pic32-tools/bin/../lib/gcc/pic32mx/4.5.2/../../../../pic32mx/lib/libc.a(lib_a-wsetup.o)
 .comment       0x00000000       0x3c /home/gombe/workspace/machikania/origdev/pic32/compiler/pic32-tools/bin/../lib/gcc/pic32mx/4.5.2/../../../../pic32mx/lib/libc.a(lib_a-abort.o)
 .comment       0x00000000       0x3c /home/gombe/workspace/machikania/origdev/pic32/compiler/pic32-tools/bin/../lib/gcc/pic32mx/4.5.2/../../../../pic32mx/lib/libc.a(lib_a-dtoa.o)
 .comment       0x00000000       0x3c /home/gombe/workspace/machikania/origdev/pic32/compiler/pic32-tools/bin/../lib/gcc/pic32mx/4.5.2/../../../../pic32mx/lib/libc.a(lib_a-fflush.o)
 .comment       0x00000000       0x3c /home/gombe/workspace/machikania/origdev/pic32/compiler/pic32-tools/bin/../lib/gcc/pic32mx/4.5.2/../../../../pic32mx/lib/libc.a(lib_a-findfp.o)
 .comment       0x00000000       0x3c /home/gombe/workspace/machikania/origdev/pic32/compiler/pic32-tools/bin/../lib/gcc/pic32mx/4.5.2/../../../../pic32mx/lib/libc.a(lib_a-fputwc.o)
 .comment       0x00000000       0x3c /home/gombe/workspace/machikania/origdev/pic32/compiler/pic32-tools/bin/../lib/gcc/pic32mx/4.5.2/../../../../pic32mx/lib/libc.a(lib_a-freer.o)
 .comment       0x00000000       0x3c /home/gombe/workspace/machikania/origdev/pic32/compiler/pic32-tools/bin/../lib/gcc/pic32mx/4.5.2/../../../../pic32mx/lib/libc.a(lib_a-fvwrite.o)
 .comment       0x00000000       0x3c /home/gombe/workspace/machikania/origdev/pic32/compiler/pic32-tools/bin/../lib/gcc/pic32mx/4.5.2/../../../../pic32mx/lib/libc.a(lib_a-fwalk.o)
 .comment       0x00000000       0x3c /home/gombe/workspace/machikania/origdev/pic32/compiler/pic32-tools/bin/../lib/gcc/pic32mx/4.5.2/../../../../pic32mx/lib/libc.a(lib_a-locale.o)
 .comment       0x00000000       0x3c /home/gombe/workspace/machikania/origdev/pic32/compiler/pic32-tools/bin/../lib/gcc/pic32mx/4.5.2/../../../../pic32mx/lib/libc.a(lib_a-makebuf.o)
 .comment       0x00000000       0x3c /home/gombe/workspace/machikania/origdev/pic32/compiler/pic32-tools/bin/../lib/gcc/pic32mx/4.5.2/../../../../pic32mx/lib/libc.a(lib_a-mallocr.o)
 .comment       0x00000000       0x3c /home/gombe/workspace/machikania/origdev/pic32/compiler/pic32-tools/bin/../lib/gcc/pic32mx/4.5.2/../../../../pic32mx/lib/libc.a(lib_a-memchr.o)
 .comment       0x00000000       0x3c /home/gombe/workspace/machikania/origdev/pic32/compiler/pic32-tools/bin/../lib/gcc/pic32mx/4.5.2/../../../../pic32mx/lib/libc.a(lib_a-memcpy.o)
 .comment       0x00000000       0x3c /home/gombe/workspace/machikania/origdev/pic32/compiler/pic32-tools/bin/../lib/gcc/pic32mx/4.5.2/../../../../pic32mx/lib/libc.a(lib_a-memmove.o)
 .comment       0x00000000       0x3c /home/gombe/workspace/machikania/origdev/pic32/compiler/pic32-tools/bin/../lib/gcc/pic32mx/4.5.2/../../../../pic32mx/lib/libc.a(lib_a-memset.o)
 .comment       0x00000000       0x3c /home/gombe/workspace/machikania/origdev/pic32/compiler/pic32-tools/bin/../lib/gcc/pic32mx/4.5.2/../../../../pic32mx/lib/libc.a(lib_a-mlock.o)
 .comment       0x00000000       0x3c /home/gombe/workspace/machikania/origdev/pic32/compiler/pic32-tools/bin/../lib/gcc/pic32mx/4.5.2/../../../../pic32mx/lib/libc.a(lib_a-mprec.o)
 .comment       0x00000000       0x3c /home/gombe/workspace/machikania/origdev/pic32/compiler/pic32-tools/bin/../lib/gcc/pic32mx/4.5.2/../../../../pic32mx/lib/libc.a(lib_a-reallocr.o)
 .comment       0x00000000       0x3c /home/gombe/workspace/machikania/origdev/pic32/compiler/pic32-tools/bin/../lib/gcc/pic32mx/4.5.2/../../../../pic32mx/lib/libc.a(lib_a-sbrkr.o)
 .comment       0x00000000       0x3c /home/gombe/workspace/machikania/origdev/pic32/compiler/pic32-tools/bin/../lib/gcc/pic32mx/4.5.2/../../../../pic32mx/lib/libc.a(lib_a-s_fpclassify.o)
 .comment       0x00000000       0x3c /home/gombe/workspace/machikania/origdev/pic32/compiler/pic32-tools/bin/../lib/gcc/pic32mx/4.5.2/../../../../pic32mx/lib/libc.a(lib_a-signal.o)
 .comment       0x00000000       0x3c /home/gombe/workspace/machikania/origdev/pic32/compiler/pic32-tools/bin/../lib/gcc/pic32mx/4.5.2/../../../../pic32mx/lib/libc.a(lib_a-signalr.o)
 .comment       0x00000000       0x3c /home/gombe/workspace/machikania/origdev/pic32/compiler/pic32-tools/bin/../lib/gcc/pic32mx/4.5.2/../../../../pic32mx/lib/libc.a(lib_a-stdio.o)
 .comment       0x00000000       0x3c /home/gombe/workspace/machikania/origdev/pic32/compiler/pic32-tools/bin/../lib/gcc/pic32mx/4.5.2/../../../../pic32mx/lib/libc.a(lib_a-strcmp.o)
 .comment       0x00000000       0x3c /home/gombe/workspace/machikania/origdev/pic32/compiler/pic32-tools/bin/../lib/gcc/pic32mx/4.5.2/../../../../pic32mx/lib/libc.a(lib_a-strlen.o)
 .comment       0x00000000       0x3c /home/gombe/workspace/machikania/origdev/pic32/compiler/pic32-tools/bin/../lib/gcc/pic32mx/4.5.2/../../../../pic32mx/lib/libc.a(lib_a-wbuf.o)
 .comment       0x00000000       0x3c /home/gombe/workspace/machikania/origdev/pic32/compiler/pic32-tools/bin/../lib/gcc/pic32mx/4.5.2/../../../../pic32mx/lib/libc.a(lib_a-wcrtomb.o)
 .comment       0x00000000       0x3c /home/gombe/workspace/machikania/origdev/pic32/compiler/pic32-tools/bin/../lib/gcc/pic32mx/4.5.2/../../../../pic32mx/lib/libc.a(lib_a-wctomb_r.o)
 .comment       0x00000000       0x3c /home/gombe/workspace/machikania/origdev/pic32/compiler/pic32-tools/bin/../lib/gcc/pic32mx/4.5.2/../../../../pic32mx/lib/libc.a(lib_a-writer.o)
 .comment       0x00000000       0x3c /home/gombe/workspace/machikania/origdev/pic32/compiler/pic32-tools/bin/../lib/gcc/pic32mx/4.5.2/../../../../pic32mx/lib/libc.a(lib_a-callocr.o)
 .comment       0x00000000       0x3c /home/gombe/workspace/machikania/origdev/pic32/compiler/pic32-tools/bin/../lib/gcc/pic32mx/4.5.2/../../../../pic32mx/lib/libc.a(lib_a-closer.o)
 .comment       0x00000000       0x3c /home/gombe/workspace/machikania/origdev/pic32/compiler/pic32-tools/bin/../lib/gcc/pic32mx/4.5.2/../../../../pic32mx/lib/libc.a(lib_a-fclose.o)
 .comment       0x00000000       0x3c /home/gombe/workspace/machikania/origdev/pic32/compiler/pic32-tools/bin/../lib/gcc/pic32mx/4.5.2/../../../../pic32mx/lib/libc.a(lib_a-fstatr.o)
 .comment       0x00000000       0x3c /home/gombe/workspace/machikania/origdev/pic32/compiler/pic32-tools/bin/../lib/gcc/pic32mx/4.5.2/../../../../pic32mx/lib/libc.a(lib_a-isattyr.o)
 .comment       0x00000000       0x3c /home/gombe/workspace/machikania/origdev/pic32/compiler/pic32-tools/bin/../lib/gcc/pic32mx/4.5.2/../../../../pic32mx/lib/libc.a(lib_a-lseekr.o)
 .comment       0x00000000       0x3c /home/gombe/workspace/machikania/origdev/pic32/compiler/pic32-tools/bin/../lib/gcc/pic32mx/4.5.2/../../../../pic32mx/lib/libc.a(lib_a-readr.o)
 .comment       0x00000000       0x3c /home/gombe/workspace/machikania/origdev/pic32/compiler/pic32-tools/bin/../lib/gcc/pic32mx/4.5.2/../../../../pic32mx/lib/libc.a(lib_a-reent.o)
 .comment       0x0000003b       0x4b /home/gombe/workspace/machikania/origdev/pic32/compiler/pic32-tools/bin/../lib/gcc/pic32mx/4.5.2/../../../../pic32mx/lib/libpic32.a(sbrk.o)
                                 0x87 (size before relaxing)
 .comment       0x00000000       0x3c /home/gombe/workspace/machikania/origdev/pic32/compiler/pic32-tools/bin/../lib/gcc/pic32mx/4.5.2/../../../../pic32mx/lib/libpic32.a(default-bootstrap-exception-handler.o)
 .comment       0x00000000       0x3c /home/gombe/workspace/machikania/origdev/pic32/compiler/pic32-tools/bin/../lib/gcc/pic32mx/4.5.2/../../../../pic32mx/lib/libpic32.a(default-on-reset.o)
 .comment       0x00000000       0x3c /home/gombe/workspace/machikania/origdev/pic32/compiler/pic32-tools/bin/../lib/gcc/pic32mx/4.5.2/../../../../pic32mx/lib/libpic32.a(default-on-bootstrap.o)
 .comment       0x00000000       0x3c /home/gombe/workspace/machikania/origdev/pic32/compiler/pic32-tools/bin/../lib/gcc/pic32mx/4.5.2/../../../../pic32mx/lib/libpic32.a(_exit.o)
 .comment       0x00000086       0x4e /home/gombe/workspace/machikania/origdev/pic32/compiler/pic32-tools/bin/../lib/gcc/pic32mx/4.5.2/../../../../pic32mx/lib/libpic32.a(isatty.o)
                                 0x8a (size before relaxing)
 .comment       0x00000000       0x3c /home/gombe/workspace/machikania/origdev/pic32/compiler/pic32-tools/bin/../lib/gcc/pic32mx/4.5.2/../../../../pic32mx/lib/libpic32.a(read.o)
 .comment       0x00000000       0x3c /home/gombe/workspace/machikania/origdev/pic32/compiler/pic32-tools/bin/../lib/gcc/pic32mx/4.5.2/../../../../pic32mx/lib/libpic32.a(write.o)
 .comment       0x00000000       0x3c /home/gombe/workspace/machikania/origdev/pic32/compiler/pic32-tools/bin/../lib/gcc/pic32mx/4.5.2/../../../../pic32mx/lib/libpic32.a(lseek.o)
 .comment       0x00000000       0x3c /home/gombe/workspace/machikania/origdev/pic32/compiler/pic32-tools/bin/../lib/gcc/pic32mx/4.5.2/../../../../pic32mx/lib/libpic32.a(close.o)
 .comment       0x00000000       0x3c /home/gombe/workspace/machikania/origdev/pic32/compiler/pic32-tools/bin/../lib/gcc/pic32mx/4.5.2/../../../../pic32mx/lib/libpic32.a(fstat.o)
 .comment       0x00000000       0x3c /home/gombe/workspace/machikania/origdev/pic32/compiler/pic32-tools/bin/../lib/gcc/pic32mx/4.5.2/../../../../pic32mx/lib/libpic32.a(kill.o)
 .comment       0x00000000       0x3c /home/gombe/workspace/machikania/origdev/pic32/compiler/pic32-tools/bin/../lib/gcc/pic32mx/4.5.2/../../../../pic32mx/lib/libpic32.a(getpid.o)
 .comment       0x00000000       0x3c /home/gombe/workspace/machikania/origdev/pic32/compiler/pic32-tools/bin/../lib/gcc/pic32mx/4.5.2/../../../../pic32mx/lib/libpic32.a(xc32_uart.o)
 .comment       0x00000000       0x3c /home/gombe/workspace/machikania/origdev/pic32/compiler/pic32-tools/bin/../lib/gcc/pic32mx/4.5.2/../../../../pic32mx/lib/libpic32.a(_mon_putc.o)
 .comment       0x00000000       0x3c /home/gombe/workspace/machikania/origdev/pic32/compiler/pic32-tools/bin/../lib/gcc/pic32mx/4.5.2/../../../../pic32mx/lib/libpic32.a(defaultinterrupt.o)
 .comment       0x00000000       0x3c /home/gombe/workspace/machikania/origdev/pic32/compiler/pic32-tools/bin/../lib/gcc/pic32mx/4.5.2/libgcc.a(_udivdi3.o)
 .comment       0x00000000       0x3c /home/gombe/workspace/machikania/origdev/pic32/compiler/pic32-tools/bin/../lib/gcc/pic32mx/4.5.2/libgcc.a(_umoddi3.o)
 .comment       0x00000000       0x3c /home/gombe/workspace/machikania/origdev/pic32/compiler/pic32-tools/bin/../lib/gcc/pic32mx/4.5.2/libgcc.a(ledf2.o)
 .comment       0x000000d4       0x3c /home/gombe/workspace/machikania/origdev/pic32/compiler/pic32-tools/bin/../lib/gcc/pic32mx/4.5.2/../../../../pic32mx/lib/libmchp_peripheral_32MX250F128B.a(osc_config_lib.o)
                                 0x3d (size before relaxing)
 .comment       0x00000000       0x3d /home/gombe/workspace/machikania/origdev/pic32/compiler/pic32-tools/bin/../lib/gcc/pic32mx/4.5.2/../../../../pic32mx/lib/libmchp_peripheral_32MX250F128B.a(int_disable_interrupts_lib.o)
 .comment       0x00000000       0x3d /home/gombe/workspace/machikania/origdev/pic32/compiler/pic32-tools/bin/../lib/gcc/pic32mx/4.5.2/../../../../pic32mx/lib/libmchp_peripheral_32MX250F128B.a(int_restore_interrupts_lib.o)
 .comment       0x00000000       0x3d /home/gombe/workspace/machikania/origdev/pic32/compiler/pic32-tools/bin/../lib/gcc/pic32mx/4.5.2/../../../../pic32mx/lib/libmchp_peripheral_32MX250F128B.a(int_enable_mv_int_lib.o)
 .comment       0x00000000       0x3d /home/gombe/workspace/machikania/origdev/pic32/compiler/pic32-tools/bin/../lib/gcc/pic32mx/4.5.2/../../../../pic32mx/lib/libmchp_peripheral_32MX250F128B.a(spi_getc_spi2_lib_legacy.o)
 .comment       0x00000000       0x3d /home/gombe/workspace/machikania/origdev/pic32/compiler/pic32-tools/bin/../lib/gcc/pic32mx/4.5.2/../../../../pic32mx/lib/libmchp_peripheral_32MX250F128B.a(spi_open_spi2_lib_legacy.o)
 .comment       0x00000000       0x3d /home/gombe/workspace/machikania/origdev/pic32/compiler/pic32-tools/bin/../lib/gcc/pic32mx/4.5.2/../../../../pic32mx/lib/libmchp_peripheral_32MX250F128B.a(spi_brg_tbl_lib_legacy.o)
 .comment       0x00000000       0x3d /home/gombe/workspace/machikania/origdev/pic32/compiler/pic32-tools/bin/../lib/gcc/pic32mx/4.5.2/../../../../pic32mx/lib/libmchp_peripheral_32MX250F128B.a(dma_chn_clr_ev_flags_lib.o)
 .comment       0x00000000       0x3d /home/gombe/workspace/machikania/origdev/pic32/compiler/pic32-tools/bin/../lib/gcc/pic32mx/4.5.2/../../../../pic32mx/lib/libmchp_peripheral_32MX250F128B.a(dma_chn_open_lib.o)
 .comment       0x00000000       0x3d /home/gombe/workspace/machikania/origdev/pic32/compiler/pic32-tools/bin/../lib/gcc/pic32mx/4.5.2/../../../../pic32mx/lib/libmchp_peripheral_32MX250F128B.a(dma_chn_enable_lib.o)
 .comment       0x00000000       0x3d /home/gombe/workspace/machikania/origdev/pic32/compiler/pic32-tools/bin/../lib/gcc/pic32mx/4.5.2/../../../../pic32mx/lib/libmchp_peripheral_32MX250F128B.a(dma_chn_get_ev_flags_lib.o)
 .comment       0x00000000       0x3d /home/gombe/workspace/machikania/origdev/pic32/compiler/pic32-tools/bin/../lib/gcc/pic32mx/4.5.2/../../../../pic32mx/lib/libmchp_peripheral_32MX250F128B.a(dma_chn_write_event_control_flags_lib.o)
 .comment       0x00000000       0x3d /home/gombe/workspace/machikania/origdev/pic32/compiler/pic32-tools/bin/../lib/gcc/pic32mx/4.5.2/../../../../pic32mx/lib/libmchp_peripheral_32MX250F128B.a(dma_chn_set_txfer_lib.o)
 .comment       0x00000000       0x3d /home/gombe/workspace/machikania/origdev/pic32/compiler/pic32-tools/bin/../lib/gcc/pic32mx/4.5.2/../../../../pic32mx/lib/libmchp_peripheral_32MX250F128B.a(dma_chn_start_txfer_lib.o)
 .comment       0x00000000       0x3d /home/gombe/workspace/machikania/origdev/pic32/compiler/pic32-tools/bin/../lib/gcc/pic32mx/4.5.2/../../../../pic32mx/lib/libmchp_peripheral_32MX250F128B.a(dma_reg_map_tbl_lib.o)
 .comment       0x00000000       0x3d /home/gombe/workspace/machikania/origdev/pic32/compiler/pic32-tools/bin/../lib/gcc/pic32mx/4.5.2/../../../../pic32mx/lib/libmchp_peripheral_32MX250F128B.a(int_enable_interrupts_lib.o)
 .comment       0x00000000       0x3d /home/gombe/workspace/machikania/origdev/pic32/compiler/pic32-tools/bin/../lib/gcc/pic32mx/4.5.2/../../../../pic32mx/lib/libmchp_peripheral_32MX250F128B.a(int_tbl_lib.o)
 .comment       0x00000000       0x3c /home/gombe/workspace/machikania/origdev/pic32/compiler/pic32-tools/bin/../lib/gcc/pic32mx/4.5.2/../../../../pic32mx/lib/libc.a(lib_a-errno.o)

.debug
 *(.debug)

.line
 *(.line)

.debug_srcinfo
 *(.debug_srcinfo)

.debug_sfnames
 *(.debug_sfnames)

.debug_aranges  0x00000000      0x6f0
 *(.debug_aranges)
 .debug_aranges
                0x00000000       0x20 obj/xprintf.o
 .debug_aranges
                0x00000020       0x20 obj/ff.o
 .debug_aranges
                0x00000040       0x20 obj/mmc_xmega.o
 .debug_aranges
                0x00000060       0x20 obj/matrix4.o
 .debug_aranges
                0x00000080       0x20 obj/triangle.o
 .debug_aranges
                0x000000a0       0x20 obj/vector2.o
 .debug_aranges
                0x000000c0       0x20 obj/newmain.o
 .debug_aranges
                0x000000e0       0x20 obj/vector3.o
 .debug_aranges
                0x00000100       0x20 obj/graphicdraw.o
 .debug_aranges
                0x00000120       0x20 obj/maze.o
 .debug_aranges
                0x00000140       0x20 obj/composite32-high4.o
 .debug_aranges
                0x00000160       0x28 obj/crtn.o
 .debug_aranges
                0x00000188       0x28 obj/crti.o
 .debug_aranges
                0x000001b0       0x40 obj/crt0.o
 .debug_aranges
                0x000001f0       0x20 /home/gombe/workspace/machikania/origdev/pic32/compiler/pic32-tools/bin/../lib/gcc/pic32mx/4.5.2/libgcc.a(_divdi3.o)
 .debug_aranges
                0x00000210       0x20 /home/gombe/workspace/machikania/origdev/pic32/compiler/pic32-tools/bin/../lib/gcc/pic32mx/4.5.2/libgcc.a(addsf3.o)
 .debug_aranges
                0x00000230       0x20 /home/gombe/workspace/machikania/origdev/pic32/compiler/pic32-tools/bin/../lib/gcc/pic32mx/4.5.2/libgcc.a(eqsf2.o)
 .debug_aranges
                0x00000250       0x20 /home/gombe/workspace/machikania/origdev/pic32/compiler/pic32-tools/bin/../lib/gcc/pic32mx/4.5.2/libgcc.a(gesf2.o)
 .debug_aranges
                0x00000270       0x20 /home/gombe/workspace/machikania/origdev/pic32/compiler/pic32-tools/bin/../lib/gcc/pic32mx/4.5.2/libgcc.a(mulsf3.o)
 .debug_aranges
                0x00000290       0x20 /home/gombe/workspace/machikania/origdev/pic32/compiler/pic32-tools/bin/../lib/gcc/pic32mx/4.5.2/libgcc.a(subsf3.o)
 .debug_aranges
                0x000002b0       0x20 /home/gombe/workspace/machikania/origdev/pic32/compiler/pic32-tools/bin/../lib/gcc/pic32mx/4.5.2/libgcc.a(fixsfsi.o)
 .debug_aranges
                0x000002d0       0x20 /home/gombe/workspace/machikania/origdev/pic32/compiler/pic32-tools/bin/../lib/gcc/pic32mx/4.5.2/libgcc.a(floatsisf.o)
 .debug_aranges
                0x000002f0       0x20 /home/gombe/workspace/machikania/origdev/pic32/compiler/pic32-tools/bin/../lib/gcc/pic32mx/4.5.2/libgcc.a(floatunsisf.o)
 .debug_aranges
                0x00000310       0x20 /home/gombe/workspace/machikania/origdev/pic32/compiler/pic32-tools/bin/../lib/gcc/pic32mx/4.5.2/libgcc.a(adddf3.o)
 .debug_aranges
                0x00000330       0x20 /home/gombe/workspace/machikania/origdev/pic32/compiler/pic32-tools/bin/../lib/gcc/pic32mx/4.5.2/libgcc.a(divdf3.o)
 .debug_aranges
                0x00000350       0x20 /home/gombe/workspace/machikania/origdev/pic32/compiler/pic32-tools/bin/../lib/gcc/pic32mx/4.5.2/libgcc.a(eqdf2.o)
 .debug_aranges
                0x00000370       0x20 /home/gombe/workspace/machikania/origdev/pic32/compiler/pic32-tools/bin/../lib/gcc/pic32mx/4.5.2/libgcc.a(gedf2.o)
 .debug_aranges
                0x00000390       0x20 /home/gombe/workspace/machikania/origdev/pic32/compiler/pic32-tools/bin/../lib/gcc/pic32mx/4.5.2/libgcc.a(muldf3.o)
 .debug_aranges
                0x000003b0       0x20 /home/gombe/workspace/machikania/origdev/pic32/compiler/pic32-tools/bin/../lib/gcc/pic32mx/4.5.2/libgcc.a(subdf3.o)
 .debug_aranges
                0x000003d0       0x20 /home/gombe/workspace/machikania/origdev/pic32/compiler/pic32-tools/bin/../lib/gcc/pic32mx/4.5.2/libgcc.a(fixdfsi.o)
 .debug_aranges
                0x000003f0       0x20 /home/gombe/workspace/machikania/origdev/pic32/compiler/pic32-tools/bin/../lib/gcc/pic32mx/4.5.2/libgcc.a(floatsidf.o)
 .debug_aranges
                0x00000410       0x20 /home/gombe/workspace/machikania/origdev/pic32/compiler/pic32-tools/bin/../lib/gcc/pic32mx/4.5.2/libgcc.a(floatunsidf.o)
 .debug_aranges
                0x00000430       0x20 /home/gombe/workspace/machikania/origdev/pic32/compiler/pic32-tools/bin/../lib/gcc/pic32mx/4.5.2/libgcc.a(extendsfdf2.o)
 .debug_aranges
                0x00000450       0x20 /home/gombe/workspace/machikania/origdev/pic32/compiler/pic32-tools/bin/../lib/gcc/pic32mx/4.5.2/libgcc.a(truncdfsf2.o)
 .debug_aranges
                0x00000470       0x20 /home/gombe/workspace/machikania/origdev/pic32/compiler/pic32-tools/bin/../lib/gcc/pic32mx/4.5.2/libgcc.a(_udivdi3.o)
 .debug_aranges
                0x00000490       0x20 /home/gombe/workspace/machikania/origdev/pic32/compiler/pic32-tools/bin/../lib/gcc/pic32mx/4.5.2/libgcc.a(_umoddi3.o)
 .debug_aranges
                0x000004b0       0x20 /home/gombe/workspace/machikania/origdev/pic32/compiler/pic32-tools/bin/../lib/gcc/pic32mx/4.5.2/libgcc.a(ledf2.o)
 .debug_aranges
                0x000004d0       0x20 /home/gombe/workspace/machikania/origdev/pic32/compiler/pic32-tools/bin/../lib/gcc/pic32mx/4.5.2/../../../../pic32mx/lib/libmchp_peripheral_32MX250F128B.a(osc_config_lib.o)
 .debug_aranges
                0x000004f0       0x20 /home/gombe/workspace/machikania/origdev/pic32/compiler/pic32-tools/bin/../lib/gcc/pic32mx/4.5.2/../../../../pic32mx/lib/libmchp_peripheral_32MX250F128B.a(int_disable_interrupts_lib.o)
 .debug_aranges
                0x00000510       0x20 /home/gombe/workspace/machikania/origdev/pic32/compiler/pic32-tools/bin/../lib/gcc/pic32mx/4.5.2/../../../../pic32mx/lib/libmchp_peripheral_32MX250F128B.a(int_restore_interrupts_lib.o)
 .debug_aranges
                0x00000530       0x20 /home/gombe/workspace/machikania/origdev/pic32/compiler/pic32-tools/bin/../lib/gcc/pic32mx/4.5.2/../../../../pic32mx/lib/libmchp_peripheral_32MX250F128B.a(int_enable_mv_int_lib.o)
 .debug_aranges
                0x00000550       0x20 /home/gombe/workspace/machikania/origdev/pic32/compiler/pic32-tools/bin/../lib/gcc/pic32mx/4.5.2/../../../../pic32mx/lib/libmchp_peripheral_32MX250F128B.a(spi_getc_spi2_lib_legacy.o)
 .debug_aranges
                0x00000570       0x20 /home/gombe/workspace/machikania/origdev/pic32/compiler/pic32-tools/bin/../lib/gcc/pic32mx/4.5.2/../../../../pic32mx/lib/libmchp_peripheral_32MX250F128B.a(spi_open_spi2_lib_legacy.o)
 .debug_aranges
                0x00000590       0x20 /home/gombe/workspace/machikania/origdev/pic32/compiler/pic32-tools/bin/../lib/gcc/pic32mx/4.5.2/../../../../pic32mx/lib/libmchp_peripheral_32MX250F128B.a(dma_chn_clr_ev_flags_lib.o)
 .debug_aranges
                0x000005b0       0x20 /home/gombe/workspace/machikania/origdev/pic32/compiler/pic32-tools/bin/../lib/gcc/pic32mx/4.5.2/../../../../pic32mx/lib/libmchp_peripheral_32MX250F128B.a(dma_chn_open_lib.o)
 .debug_aranges
                0x000005d0       0x20 /home/gombe/workspace/machikania/origdev/pic32/compiler/pic32-tools/bin/../lib/gcc/pic32mx/4.5.2/../../../../pic32mx/lib/libmchp_peripheral_32MX250F128B.a(dma_chn_enable_lib.o)
 .debug_aranges
                0x000005f0       0x20 /home/gombe/workspace/machikania/origdev/pic32/compiler/pic32-tools/bin/../lib/gcc/pic32mx/4.5.2/../../../../pic32mx/lib/libmchp_peripheral_32MX250F128B.a(dma_chn_get_ev_flags_lib.o)
 .debug_aranges
                0x00000610       0x20 /home/gombe/workspace/machikania/origdev/pic32/compiler/pic32-tools/bin/../lib/gcc/pic32mx/4.5.2/../../../../pic32mx/lib/libmchp_peripheral_32MX250F128B.a(dma_chn_write_event_control_flags_lib.o)
 .debug_aranges
                0x00000630       0x20 /home/gombe/workspace/machikania/origdev/pic32/compiler/pic32-tools/bin/../lib/gcc/pic32mx/4.5.2/../../../../pic32mx/lib/libmchp_peripheral_32MX250F128B.a(dma_chn_set_txfer_lib.o)
 .debug_aranges
                0x00000650       0x20 /home/gombe/workspace/machikania/origdev/pic32/compiler/pic32-tools/bin/../lib/gcc/pic32mx/4.5.2/../../../../pic32mx/lib/libmchp_peripheral_32MX250F128B.a(dma_chn_start_txfer_lib.o)
 .debug_aranges
                0x00000670       0x20 /home/gombe/workspace/machikania/origdev/pic32/compiler/pic32-tools/bin/../lib/gcc/pic32mx/4.5.2/../../../../pic32mx/lib/libmchp_peripheral_32MX250F128B.a(int_enable_interrupts_lib.o)
 .debug_aranges
                0x00000690       0x60 /home/gombe/workspace/machikania/origdev/pic32/compiler/pic32-tools/bin/../lib/gcc/pic32mx/4.5.2/../../../../pic32mx/lib/libmchp_peripheral_32MX250F128B.a(int_tbl_lib.o)

.debug_pubnames
                0x00000000      0xed9
 *(.debug_pubnames)
 .debug_pubnames
                0x00000000       0x9e obj/xprintf.o
 .debug_pubnames
                0x0000009e       0xef obj/ff.o
 .debug_pubnames
                0x0000018d       0x9e obj/mmc_xmega.o
 .debug_pubnames
                0x0000022b       0x7f obj/matrix4.o
 .debug_pubnames
                0x000002aa       0x68 obj/triangle.o
 .debug_pubnames
                0x00000312      0x11b obj/vector2.o
 .debug_pubnames
                0x0000042d       0x51 obj/newmain.o
 .debug_pubnames
                0x0000047e       0x1c obj/graphiclib.o
 .debug_pubnames
                0x0000049a       0x23 obj/vector3.o
 .debug_pubnames
                0x000004bd      0x1a1 obj/graphicdraw.o
 .debug_pubnames
                0x0000065e       0xa4 obj/maze.o
 .debug_pubnames
                0x00000702      0x207 obj/composite32-high4.o
 .debug_pubnames
                0x00000909       0x1f /home/gombe/workspace/machikania/origdev/pic32/compiler/pic32-tools/bin/../lib/gcc/pic32mx/4.5.2/libgcc.a(_divdi3.o)
 .debug_pubnames
                0x00000928       0x1f /home/gombe/workspace/machikania/origdev/pic32/compiler/pic32-tools/bin/../lib/gcc/pic32mx/4.5.2/libgcc.a(addsf3.o)
 .debug_pubnames
                0x00000947       0x1e /home/gombe/workspace/machikania/origdev/pic32/compiler/pic32-tools/bin/../lib/gcc/pic32mx/4.5.2/libgcc.a(eqsf2.o)
 .debug_pubnames
                0x00000965       0x1e /home/gombe/workspace/machikania/origdev/pic32/compiler/pic32-tools/bin/../lib/gcc/pic32mx/4.5.2/libgcc.a(gesf2.o)
 .debug_pubnames
                0x00000983       0x1f /home/gombe/workspace/machikania/origdev/pic32/compiler/pic32-tools/bin/../lib/gcc/pic32mx/4.5.2/libgcc.a(mulsf3.o)
 .debug_pubnames
                0x000009a2       0x1f /home/gombe/workspace/machikania/origdev/pic32/compiler/pic32-tools/bin/../lib/gcc/pic32mx/4.5.2/libgcc.a(subsf3.o)
 .debug_pubnames
                0x000009c1       0x20 /home/gombe/workspace/machikania/origdev/pic32/compiler/pic32-tools/bin/../lib/gcc/pic32mx/4.5.2/libgcc.a(fixsfsi.o)
 .debug_pubnames
                0x000009e1       0x22 /home/gombe/workspace/machikania/origdev/pic32/compiler/pic32-tools/bin/../lib/gcc/pic32mx/4.5.2/libgcc.a(floatsisf.o)
 .debug_pubnames
                0x00000a03       0x24 /home/gombe/workspace/machikania/origdev/pic32/compiler/pic32-tools/bin/../lib/gcc/pic32mx/4.5.2/libgcc.a(floatunsisf.o)
 .debug_pubnames
                0x00000a27       0x1f /home/gombe/workspace/machikania/origdev/pic32/compiler/pic32-tools/bin/../lib/gcc/pic32mx/4.5.2/libgcc.a(adddf3.o)
 .debug_pubnames
                0x00000a46       0x1f /home/gombe/workspace/machikania/origdev/pic32/compiler/pic32-tools/bin/../lib/gcc/pic32mx/4.5.2/libgcc.a(divdf3.o)
 .debug_pubnames
                0x00000a65       0x1e /home/gombe/workspace/machikania/origdev/pic32/compiler/pic32-tools/bin/../lib/gcc/pic32mx/4.5.2/libgcc.a(eqdf2.o)
 .debug_pubnames
                0x00000a83       0x1e /home/gombe/workspace/machikania/origdev/pic32/compiler/pic32-tools/bin/../lib/gcc/pic32mx/4.5.2/libgcc.a(gedf2.o)
 .debug_pubnames
                0x00000aa1       0x1f /home/gombe/workspace/machikania/origdev/pic32/compiler/pic32-tools/bin/../lib/gcc/pic32mx/4.5.2/libgcc.a(muldf3.o)
 .debug_pubnames
                0x00000ac0       0x1f /home/gombe/workspace/machikania/origdev/pic32/compiler/pic32-tools/bin/../lib/gcc/pic32mx/4.5.2/libgcc.a(subdf3.o)
 .debug_pubnames
                0x00000adf       0x20 /home/gombe/workspace/machikania/origdev/pic32/compiler/pic32-tools/bin/../lib/gcc/pic32mx/4.5.2/libgcc.a(fixdfsi.o)
 .debug_pubnames
                0x00000aff       0x22 /home/gombe/workspace/machikania/origdev/pic32/compiler/pic32-tools/bin/../lib/gcc/pic32mx/4.5.2/libgcc.a(floatsidf.o)
 .debug_pubnames
                0x00000b21       0x24 /home/gombe/workspace/machikania/origdev/pic32/compiler/pic32-tools/bin/../lib/gcc/pic32mx/4.5.2/libgcc.a(floatunsidf.o)
 .debug_pubnames
                0x00000b45       0x24 /home/gombe/workspace/machikania/origdev/pic32/compiler/pic32-tools/bin/../lib/gcc/pic32mx/4.5.2/libgcc.a(extendsfdf2.o)
 .debug_pubnames
                0x00000b69       0x23 /home/gombe/workspace/machikania/origdev/pic32/compiler/pic32-tools/bin/../lib/gcc/pic32mx/4.5.2/libgcc.a(truncdfsf2.o)
 .debug_pubnames
                0x00000b8c       0x20 /home/gombe/workspace/machikania/origdev/pic32/compiler/pic32-tools/bin/../lib/gcc/pic32mx/4.5.2/libgcc.a(_udivdi3.o)
 .debug_pubnames
                0x00000bac       0x20 /home/gombe/workspace/machikania/origdev/pic32/compiler/pic32-tools/bin/../lib/gcc/pic32mx/4.5.2/libgcc.a(_umoddi3.o)
 .debug_pubnames
                0x00000bcc       0x1e /home/gombe/workspace/machikania/origdev/pic32/compiler/pic32-tools/bin/../lib/gcc/pic32mx/4.5.2/libgcc.a(ledf2.o)
 .debug_pubnames
                0x00000bea       0x20 /home/gombe/workspace/machikania/origdev/pic32/compiler/pic32-tools/bin/../lib/gcc/pic32mx/4.5.2/../../../../pic32mx/lib/libmchp_peripheral_32MX250F128B.a(osc_config_lib.o)
 .debug_pubnames
                0x00000c0a       0x2b /home/gombe/workspace/machikania/origdev/pic32/compiler/pic32-tools/bin/../lib/gcc/pic32mx/4.5.2/../../../../pic32mx/lib/libmchp_peripheral_32MX250F128B.a(int_disable_interrupts_lib.o)
 .debug_pubnames
                0x00000c35       0x2b /home/gombe/workspace/machikania/origdev/pic32/compiler/pic32-tools/bin/../lib/gcc/pic32mx/4.5.2/../../../../pic32mx/lib/libmchp_peripheral_32MX250F128B.a(int_restore_interrupts_lib.o)
 .debug_pubnames
                0x00000c60       0x36 /home/gombe/workspace/machikania/origdev/pic32/compiler/pic32-tools/bin/../lib/gcc/pic32mx/4.5.2/../../../../pic32mx/lib/libmchp_peripheral_32MX250F128B.a(int_enable_mv_int_lib.o)
 .debug_pubnames
                0x00000c96       0x1f /home/gombe/workspace/machikania/origdev/pic32/compiler/pic32-tools/bin/../lib/gcc/pic32mx/4.5.2/../../../../pic32mx/lib/libmchp_peripheral_32MX250F128B.a(spi_getc_spi2_lib_legacy.o)
 .debug_pubnames
                0x00000cb5       0x1f /home/gombe/workspace/machikania/origdev/pic32/compiler/pic32-tools/bin/../lib/gcc/pic32mx/4.5.2/../../../../pic32mx/lib/libmchp_peripheral_32MX250F128B.a(spi_open_spi2_lib_legacy.o)
 .debug_pubnames
                0x00000cd4       0x27 /home/gombe/workspace/machikania/origdev/pic32/compiler/pic32-tools/bin/../lib/gcc/pic32mx/4.5.2/../../../../pic32mx/lib/libmchp_peripheral_32MX250F128B.a(dma_chn_clr_ev_flags_lib.o)
 .debug_pubnames
                0x00000cfb       0x21 /home/gombe/workspace/machikania/origdev/pic32/compiler/pic32-tools/bin/../lib/gcc/pic32mx/4.5.2/../../../../pic32mx/lib/libmchp_peripheral_32MX250F128B.a(dma_chn_open_lib.o)
 .debug_pubnames
                0x00000d1c       0x23 /home/gombe/workspace/machikania/origdev/pic32/compiler/pic32-tools/bin/../lib/gcc/pic32mx/4.5.2/../../../../pic32mx/lib/libmchp_peripheral_32MX250F128B.a(dma_chn_enable_lib.o)
 .debug_pubnames
                0x00000d3f       0x27 /home/gombe/workspace/machikania/origdev/pic32/compiler/pic32-tools/bin/../lib/gcc/pic32mx/4.5.2/../../../../pic32mx/lib/libmchp_peripheral_32MX250F128B.a(dma_chn_get_ev_flags_lib.o)
 .debug_pubnames
                0x00000d66       0x33 /home/gombe/workspace/machikania/origdev/pic32/compiler/pic32-tools/bin/../lib/gcc/pic32mx/4.5.2/../../../../pic32mx/lib/libmchp_peripheral_32MX250F128B.a(dma_chn_write_event_control_flags_lib.o)
 .debug_pubnames
                0x00000d99       0x25 /home/gombe/workspace/machikania/origdev/pic32/compiler/pic32-tools/bin/../lib/gcc/pic32mx/4.5.2/../../../../pic32mx/lib/libmchp_peripheral_32MX250F128B.a(dma_chn_set_txfer_lib.o)
 .debug_pubnames
                0x00000dbe       0x27 /home/gombe/workspace/machikania/origdev/pic32/compiler/pic32-tools/bin/../lib/gcc/pic32mx/4.5.2/../../../../pic32mx/lib/libmchp_peripheral_32MX250F128B.a(dma_chn_start_txfer_lib.o)
 .debug_pubnames
                0x00000de5       0x2a /home/gombe/workspace/machikania/origdev/pic32/compiler/pic32-tools/bin/../lib/gcc/pic32mx/4.5.2/../../../../pic32mx/lib/libmchp_peripheral_32MX250F128B.a(int_enable_interrupts_lib.o)
 .debug_pubnames
                0x00000e0f       0xca /home/gombe/workspace/machikania/origdev/pic32/compiler/pic32-tools/bin/../lib/gcc/pic32mx/4.5.2/../../../../pic32mx/lib/libmchp_peripheral_32MX250F128B.a(int_tbl_lib.o)

.debug_info     0x00000000    0x17f08
 *(.debug_info .gnu.linkonce.wi.*)
 .debug_info    0x00000000      0x7f7 obj/xprintf.o
 .debug_info    0x000007f7     0x2268 obj/ff.o
 .debug_info    0x00002a5f     0x1efb obj/mmc_xmega.o
 .debug_info    0x0000495a      0xf66 obj/matrix4.o
 .debug_info    0x000058c0     0x144d obj/triangle.o
 .debug_info    0x00006d0d      0x6ee obj/vector2.o
 .debug_info    0x000073fb     0x3008 obj/newmain.o
 .debug_info    0x0000a403      0x1c5 obj/graphiclib.o
 .debug_info    0x0000a5c8      0x426 obj/vector3.o
 .debug_info    0x0000a9ee     0x1bcd obj/graphicdraw.o
 .debug_info    0x0000c5bb     0x1cfd obj/maze.o
 .debug_info    0x0000e2b8     0x2956 obj/composite32-high4.o
 .debug_info    0x00010c0e       0x75 obj/crtn.o
 .debug_info    0x00010c83       0x75 obj/crti.o
 .debug_info    0x00010cf8       0x75 obj/crt0.o
 .debug_info    0x00010d6d      0x7b3 /home/gombe/workspace/machikania/origdev/pic32/compiler/pic32-tools/bin/../lib/gcc/pic32mx/4.5.2/libgcc.a(_divdi3.o)
 .debug_info    0x00011520      0x42e /home/gombe/workspace/machikania/origdev/pic32/compiler/pic32-tools/bin/../lib/gcc/pic32mx/4.5.2/libgcc.a(addsf3.o)
 .debug_info    0x0001194e      0x2fb /home/gombe/workspace/machikania/origdev/pic32/compiler/pic32-tools/bin/../lib/gcc/pic32mx/4.5.2/libgcc.a(eqsf2.o)
 .debug_info    0x00011c49      0x339 /home/gombe/workspace/machikania/origdev/pic32/compiler/pic32-tools/bin/../lib/gcc/pic32mx/4.5.2/libgcc.a(gesf2.o)
 .debug_info    0x00011f82      0x410 /home/gombe/workspace/machikania/origdev/pic32/compiler/pic32-tools/bin/../lib/gcc/pic32mx/4.5.2/libgcc.a(mulsf3.o)
 .debug_info    0x00012392      0x42e /home/gombe/workspace/machikania/origdev/pic32/compiler/pic32-tools/bin/../lib/gcc/pic32mx/4.5.2/libgcc.a(subsf3.o)
 .debug_info    0x000127c0      0x2e4 /home/gombe/workspace/machikania/origdev/pic32/compiler/pic32-tools/bin/../lib/gcc/pic32mx/4.5.2/libgcc.a(fixsfsi.o)
 .debug_info    0x00012aa4      0x316 /home/gombe/workspace/machikania/origdev/pic32/compiler/pic32-tools/bin/../lib/gcc/pic32mx/4.5.2/libgcc.a(floatsisf.o)
 .debug_info    0x00012dba      0x306 /home/gombe/workspace/machikania/origdev/pic32/compiler/pic32-tools/bin/../lib/gcc/pic32mx/4.5.2/libgcc.a(floatunsisf.o)
 .debug_info    0x000130c0      0x622 /home/gombe/workspace/machikania/origdev/pic32/compiler/pic32-tools/bin/../lib/gcc/pic32mx/4.5.2/libgcc.a(adddf3.o)
 .debug_info    0x000136e2      0x68d /home/gombe/workspace/machikania/origdev/pic32/compiler/pic32-tools/bin/../lib/gcc/pic32mx/4.5.2/libgcc.a(divdf3.o)
 .debug_info    0x00013d6f      0x329 /home/gombe/workspace/machikania/origdev/pic32/compiler/pic32-tools/bin/../lib/gcc/pic32mx/4.5.2/libgcc.a(eqdf2.o)
 .debug_info    0x00014098      0x367 /home/gombe/workspace/machikania/origdev/pic32/compiler/pic32-tools/bin/../lib/gcc/pic32mx/4.5.2/libgcc.a(gedf2.o)
 .debug_info    0x000143ff      0x5d8 /home/gombe/workspace/machikania/origdev/pic32/compiler/pic32-tools/bin/../lib/gcc/pic32mx/4.5.2/libgcc.a(muldf3.o)
 .debug_info    0x000149d7      0x622 /home/gombe/workspace/machikania/origdev/pic32/compiler/pic32-tools/bin/../lib/gcc/pic32mx/4.5.2/libgcc.a(subdf3.o)
 .debug_info    0x00014ff9      0x30d /home/gombe/workspace/machikania/origdev/pic32/compiler/pic32-tools/bin/../lib/gcc/pic32mx/4.5.2/libgcc.a(fixdfsi.o)
 .debug_info    0x00015306      0x33a /home/gombe/workspace/machikania/origdev/pic32/compiler/pic32-tools/bin/../lib/gcc/pic32mx/4.5.2/libgcc.a(floatsidf.o)
 .debug_info    0x00015640      0x325 /home/gombe/workspace/machikania/origdev/pic32/compiler/pic32-tools/bin/../lib/gcc/pic32mx/4.5.2/libgcc.a(floatunsidf.o)
 .debug_info    0x00015965      0x3c7 /home/gombe/workspace/machikania/origdev/pic32/compiler/pic32-tools/bin/../lib/gcc/pic32mx/4.5.2/libgcc.a(extendsfdf2.o)
 .debug_info    0x00015d2c      0x3a6 /home/gombe/workspace/machikania/origdev/pic32/compiler/pic32-tools/bin/../lib/gcc/pic32mx/4.5.2/libgcc.a(truncdfsf2.o)
 .debug_info    0x000160d2      0x77a /home/gombe/workspace/machikania/origdev/pic32/compiler/pic32-tools/bin/../lib/gcc/pic32mx/4.5.2/libgcc.a(_udivdi3.o)
 .debug_info    0x0001684c      0x7cb /home/gombe/workspace/machikania/origdev/pic32/compiler/pic32-tools/bin/../lib/gcc/pic32mx/4.5.2/libgcc.a(_umoddi3.o)
 .debug_info    0x00017017      0x367 /home/gombe/workspace/machikania/origdev/pic32/compiler/pic32-tools/bin/../lib/gcc/pic32mx/4.5.2/libgcc.a(ledf2.o)
 .debug_info    0x0001737e       0xc0 /home/gombe/workspace/machikania/origdev/pic32/compiler/pic32-tools/bin/../lib/gcc/pic32mx/4.5.2/../../../../pic32mx/lib/libmchp_peripheral_32MX250F128B.a(osc_config_lib.o)
 .debug_info    0x0001743e       0xb6 /home/gombe/workspace/machikania/origdev/pic32/compiler/pic32-tools/bin/../lib/gcc/pic32mx/4.5.2/../../../../pic32mx/lib/libmchp_peripheral_32MX250F128B.a(int_disable_interrupts_lib.o)
 .debug_info    0x000174f4       0xb6 /home/gombe/workspace/machikania/origdev/pic32/compiler/pic32-tools/bin/../lib/gcc/pic32mx/4.5.2/../../../../pic32mx/lib/libmchp_peripheral_32MX250F128B.a(int_restore_interrupts_lib.o)
 .debug_info    0x000175aa       0xbc /home/gombe/workspace/machikania/origdev/pic32/compiler/pic32-tools/bin/../lib/gcc/pic32mx/4.5.2/../../../../pic32mx/lib/libmchp_peripheral_32MX250F128B.a(int_enable_mv_int_lib.o)
 .debug_info    0x00017666       0xa8 /home/gombe/workspace/machikania/origdev/pic32/compiler/pic32-tools/bin/../lib/gcc/pic32mx/4.5.2/../../../../pic32mx/lib/libmchp_peripheral_32MX250F128B.a(spi_getc_spi2_lib_legacy.o)
 .debug_info    0x0001770e       0xa8 /home/gombe/workspace/machikania/origdev/pic32/compiler/pic32-tools/bin/../lib/gcc/pic32mx/4.5.2/../../../../pic32mx/lib/libmchp_peripheral_32MX250F128B.a(spi_open_spi2_lib_legacy.o)
 .debug_info    0x000177b6        0x0 /home/gombe/workspace/machikania/origdev/pic32/compiler/pic32-tools/bin/../lib/gcc/pic32mx/4.5.2/../../../../pic32mx/lib/libmchp_peripheral_32MX250F128B.a(spi_brg_tbl_lib_legacy.o)
 .debug_info    0x000177b6       0xb0 /home/gombe/workspace/machikania/origdev/pic32/compiler/pic32-tools/bin/../lib/gcc/pic32mx/4.5.2/../../../../pic32mx/lib/libmchp_peripheral_32MX250F128B.a(dma_chn_clr_ev_flags_lib.o)
 .debug_info    0x00017866       0xb5 /home/gombe/workspace/machikania/origdev/pic32/compiler/pic32-tools/bin/../lib/gcc/pic32mx/4.5.2/../../../../pic32mx/lib/libmchp_peripheral_32MX250F128B.a(dma_chn_open_lib.o)
 .debug_info    0x0001791b       0xa6 /home/gombe/workspace/machikania/origdev/pic32/compiler/pic32-tools/bin/../lib/gcc/pic32mx/4.5.2/../../../../pic32mx/lib/libmchp_peripheral_32MX250F128B.a(dma_chn_enable_lib.o)
 .debug_info    0x000179c1       0xb0 /home/gombe/workspace/machikania/origdev/pic32/compiler/pic32-tools/bin/../lib/gcc/pic32mx/4.5.2/../../../../pic32mx/lib/libmchp_peripheral_32MX250F128B.a(dma_chn_get_ev_flags_lib.o)
 .debug_info    0x00017a71       0xc9 /home/gombe/workspace/machikania/origdev/pic32/compiler/pic32-tools/bin/../lib/gcc/pic32mx/4.5.2/../../../../pic32mx/lib/libmchp_peripheral_32MX250F128B.a(dma_chn_write_event_control_flags_lib.o)
 .debug_info    0x00017b3a       0xbc /home/gombe/workspace/machikania/origdev/pic32/compiler/pic32-tools/bin/../lib/gcc/pic32mx/4.5.2/../../../../pic32mx/lib/libmchp_peripheral_32MX250F128B.a(dma_chn_set_txfer_lib.o)
 .debug_info    0x00017bf6       0xc8 /home/gombe/workspace/machikania/origdev/pic32/compiler/pic32-tools/bin/../lib/gcc/pic32mx/4.5.2/../../../../pic32mx/lib/libmchp_peripheral_32MX250F128B.a(dma_chn_start_txfer_lib.o)
 .debug_info    0x00017cbe        0x0 /home/gombe/workspace/machikania/origdev/pic32/compiler/pic32-tools/bin/../lib/gcc/pic32mx/4.5.2/../../../../pic32mx/lib/libmchp_peripheral_32MX250F128B.a(dma_reg_map_tbl_lib.o)
 .debug_info    0x00017cbe       0xb4 /home/gombe/workspace/machikania/origdev/pic32/compiler/pic32-tools/bin/../lib/gcc/pic32mx/4.5.2/../../../../pic32mx/lib/libmchp_peripheral_32MX250F128B.a(int_enable_interrupts_lib.o)
 .debug_info    0x00017d72      0x196 /home/gombe/workspace/machikania/origdev/pic32/compiler/pic32-tools/bin/../lib/gcc/pic32mx/4.5.2/../../../../pic32mx/lib/libmchp_peripheral_32MX250F128B.a(int_tbl_lib.o)

.debug_abbrev   0x00000000     0x346d
 *(.debug_abbrev)
 .debug_abbrev  0x00000000      0x1c6 obj/xprintf.o
 .debug_abbrev  0x000001c6      0x1fe obj/ff.o
 .debug_abbrev  0x000003c4      0x36c obj/mmc_xmega.o
 .debug_abbrev  0x00000730      0x248 obj/matrix4.o
 .debug_abbrev  0x00000978      0x2ab obj/triangle.o
 .debug_abbrev  0x00000c23      0x1c4 obj/vector2.o
 .debug_abbrev  0x00000de7      0x47b obj/newmain.o
 .debug_abbrev  0x00001262       0x65 obj/graphiclib.o
 .debug_abbrev  0x000012c7      0x133 obj/vector3.o
 .debug_abbrev  0x000013fa      0x301 obj/graphicdraw.o
 .debug_abbrev  0x000016fb      0x31f obj/maze.o
 .debug_abbrev  0x00001a1a      0x2aa obj/composite32-high4.o
 .debug_abbrev  0x00001cc4       0x12 obj/crtn.o
 .debug_abbrev  0x00001cd6       0x12 obj/crti.o
 .debug_abbrev  0x00001ce8       0x12 obj/crt0.o
 .debug_abbrev  0x00001cfa      0x141 /home/gombe/workspace/machikania/origdev/pic32/compiler/pic32-tools/bin/../lib/gcc/pic32mx/4.5.2/libgcc.a(_divdi3.o)
 .debug_abbrev  0x00001e3b       0xde /home/gombe/workspace/machikania/origdev/pic32/compiler/pic32-tools/bin/../lib/gcc/pic32mx/4.5.2/libgcc.a(addsf3.o)
 .debug_abbrev  0x00001f19       0xe0 /home/gombe/workspace/machikania/origdev/pic32/compiler/pic32-tools/bin/../lib/gcc/pic32mx/4.5.2/libgcc.a(eqsf2.o)
 .debug_abbrev  0x00001ff9       0xe0 /home/gombe/workspace/machikania/origdev/pic32/compiler/pic32-tools/bin/../lib/gcc/pic32mx/4.5.2/libgcc.a(gesf2.o)
 .debug_abbrev  0x000020d9       0xd1 /home/gombe/workspace/machikania/origdev/pic32/compiler/pic32-tools/bin/../lib/gcc/pic32mx/4.5.2/libgcc.a(mulsf3.o)
 .debug_abbrev  0x000021aa       0xde /home/gombe/workspace/machikania/origdev/pic32/compiler/pic32-tools/bin/../lib/gcc/pic32mx/4.5.2/libgcc.a(subsf3.o)
 .debug_abbrev  0x00002288       0xd1 /home/gombe/workspace/machikania/origdev/pic32/compiler/pic32-tools/bin/../lib/gcc/pic32mx/4.5.2/libgcc.a(fixsfsi.o)
 .debug_abbrev  0x00002359       0xde /home/gombe/workspace/machikania/origdev/pic32/compiler/pic32-tools/bin/../lib/gcc/pic32mx/4.5.2/libgcc.a(floatsisf.o)
 .debug_abbrev  0x00002437       0xcf /home/gombe/workspace/machikania/origdev/pic32/compiler/pic32-tools/bin/../lib/gcc/pic32mx/4.5.2/libgcc.a(floatunsisf.o)
 .debug_abbrev  0x00002506       0xde /home/gombe/workspace/machikania/origdev/pic32/compiler/pic32-tools/bin/../lib/gcc/pic32mx/4.5.2/libgcc.a(adddf3.o)
 .debug_abbrev  0x000025e4       0xd1 /home/gombe/workspace/machikania/origdev/pic32/compiler/pic32-tools/bin/../lib/gcc/pic32mx/4.5.2/libgcc.a(divdf3.o)
 .debug_abbrev  0x000026b5       0xef /home/gombe/workspace/machikania/origdev/pic32/compiler/pic32-tools/bin/../lib/gcc/pic32mx/4.5.2/libgcc.a(eqdf2.o)
 .debug_abbrev  0x000027a4       0xef /home/gombe/workspace/machikania/origdev/pic32/compiler/pic32-tools/bin/../lib/gcc/pic32mx/4.5.2/libgcc.a(gedf2.o)
 .debug_abbrev  0x00002893       0xe1 /home/gombe/workspace/machikania/origdev/pic32/compiler/pic32-tools/bin/../lib/gcc/pic32mx/4.5.2/libgcc.a(muldf3.o)
 .debug_abbrev  0x00002974       0xde /home/gombe/workspace/machikania/origdev/pic32/compiler/pic32-tools/bin/../lib/gcc/pic32mx/4.5.2/libgcc.a(subdf3.o)
 .debug_abbrev  0x00002a52       0xd1 /home/gombe/workspace/machikania/origdev/pic32/compiler/pic32-tools/bin/../lib/gcc/pic32mx/4.5.2/libgcc.a(fixdfsi.o)
 .debug_abbrev  0x00002b23       0xeb /home/gombe/workspace/machikania/origdev/pic32/compiler/pic32-tools/bin/../lib/gcc/pic32mx/4.5.2/libgcc.a(floatsidf.o)
 .debug_abbrev  0x00002c0e       0xdc /home/gombe/workspace/machikania/origdev/pic32/compiler/pic32-tools/bin/../lib/gcc/pic32mx/4.5.2/libgcc.a(floatunsidf.o)
 .debug_abbrev  0x00002cea       0xe0 /home/gombe/workspace/machikania/origdev/pic32/compiler/pic32-tools/bin/../lib/gcc/pic32mx/4.5.2/libgcc.a(extendsfdf2.o)
 .debug_abbrev  0x00002dca       0xd1 /home/gombe/workspace/machikania/origdev/pic32/compiler/pic32-tools/bin/../lib/gcc/pic32mx/4.5.2/libgcc.a(truncdfsf2.o)
 .debug_abbrev  0x00002e9b      0x132 /home/gombe/workspace/machikania/origdev/pic32/compiler/pic32-tools/bin/../lib/gcc/pic32mx/4.5.2/libgcc.a(_udivdi3.o)
 .debug_abbrev  0x00002fcd      0x148 /home/gombe/workspace/machikania/origdev/pic32/compiler/pic32-tools/bin/../lib/gcc/pic32mx/4.5.2/libgcc.a(_umoddi3.o)
 .debug_abbrev  0x00003115       0xef /home/gombe/workspace/machikania/origdev/pic32/compiler/pic32-tools/bin/../lib/gcc/pic32mx/4.5.2/libgcc.a(ledf2.o)
 .debug_abbrev  0x00003204       0x34 /home/gombe/workspace/machikania/origdev/pic32/compiler/pic32-tools/bin/../lib/gcc/pic32mx/4.5.2/../../../../pic32mx/lib/libmchp_peripheral_32MX250F128B.a(osc_config_lib.o)
 .debug_abbrev  0x00003238       0x25 /home/gombe/workspace/machikania/origdev/pic32/compiler/pic32-tools/bin/../lib/gcc/pic32mx/4.5.2/../../../../pic32mx/lib/libmchp_peripheral_32MX250F128B.a(int_disable_interrupts_lib.o)
 .debug_abbrev  0x0000325d       0x25 /home/gombe/workspace/machikania/origdev/pic32/compiler/pic32-tools/bin/../lib/gcc/pic32mx/4.5.2/../../../../pic32mx/lib/libmchp_peripheral_32MX250F128B.a(int_restore_interrupts_lib.o)
 .debug_abbrev  0x00003282       0x25 /home/gombe/workspace/machikania/origdev/pic32/compiler/pic32-tools/bin/../lib/gcc/pic32mx/4.5.2/../../../../pic32mx/lib/libmchp_peripheral_32MX250F128B.a(int_enable_mv_int_lib.o)
 .debug_abbrev  0x000032a7       0x25 /home/gombe/workspace/machikania/origdev/pic32/compiler/pic32-tools/bin/../lib/gcc/pic32mx/4.5.2/../../../../pic32mx/lib/libmchp_peripheral_32MX250F128B.a(spi_getc_spi2_lib_legacy.o)
 .debug_abbrev  0x000032cc       0x25 /home/gombe/workspace/machikania/origdev/pic32/compiler/pic32-tools/bin/../lib/gcc/pic32mx/4.5.2/../../../../pic32mx/lib/libmchp_peripheral_32MX250F128B.a(spi_open_spi2_lib_legacy.o)
 .debug_abbrev  0x000032f1        0x1 /home/gombe/workspace/machikania/origdev/pic32/compiler/pic32-tools/bin/../lib/gcc/pic32mx/4.5.2/../../../../pic32mx/lib/libmchp_peripheral_32MX250F128B.a(spi_brg_tbl_lib_legacy.o)
 .debug_abbrev  0x000032f2       0x25 /home/gombe/workspace/machikania/origdev/pic32/compiler/pic32-tools/bin/../lib/gcc/pic32mx/4.5.2/../../../../pic32mx/lib/libmchp_peripheral_32MX250F128B.a(dma_chn_clr_ev_flags_lib.o)
 .debug_abbrev  0x00003317       0x34 /home/gombe/workspace/machikania/origdev/pic32/compiler/pic32-tools/bin/../lib/gcc/pic32mx/4.5.2/../../../../pic32mx/lib/libmchp_peripheral_32MX250F128B.a(dma_chn_open_lib.o)
 .debug_abbrev  0x0000334b       0x25 /home/gombe/workspace/machikania/origdev/pic32/compiler/pic32-tools/bin/../lib/gcc/pic32mx/4.5.2/../../../../pic32mx/lib/libmchp_peripheral_32MX250F128B.a(dma_chn_enable_lib.o)
 .debug_abbrev  0x00003370       0x25 /home/gombe/workspace/machikania/origdev/pic32/compiler/pic32-tools/bin/../lib/gcc/pic32mx/4.5.2/../../../../pic32mx/lib/libmchp_peripheral_32MX250F128B.a(dma_chn_get_ev_flags_lib.o)
 .debug_abbrev  0x00003395       0x25 /home/gombe/workspace/machikania/origdev/pic32/compiler/pic32-tools/bin/../lib/gcc/pic32mx/4.5.2/../../../../pic32mx/lib/libmchp_peripheral_32MX250F128B.a(dma_chn_write_event_control_flags_lib.o)
 .debug_abbrev  0x000033ba       0x34 /home/gombe/workspace/machikania/origdev/pic32/compiler/pic32-tools/bin/../lib/gcc/pic32mx/4.5.2/../../../../pic32mx/lib/libmchp_peripheral_32MX250F128B.a(dma_chn_set_txfer_lib.o)
 .debug_abbrev  0x000033ee       0x34 /home/gombe/workspace/machikania/origdev/pic32/compiler/pic32-tools/bin/../lib/gcc/pic32mx/4.5.2/../../../../pic32mx/lib/libmchp_peripheral_32MX250F128B.a(dma_chn_start_txfer_lib.o)
 .debug_abbrev  0x00003422        0x1 /home/gombe/workspace/machikania/origdev/pic32/compiler/pic32-tools/bin/../lib/gcc/pic32mx/4.5.2/../../../../pic32mx/lib/libmchp_peripheral_32MX250F128B.a(dma_reg_map_tbl_lib.o)
 .debug_abbrev  0x00003423       0x25 /home/gombe/workspace/machikania/origdev/pic32/compiler/pic32-tools/bin/../lib/gcc/pic32mx/4.5.2/../../../../pic32mx/lib/libmchp_peripheral_32MX250F128B.a(int_enable_interrupts_lib.o)
 .debug_abbrev  0x00003448       0x25 /home/gombe/workspace/machikania/origdev/pic32/compiler/pic32-tools/bin/../lib/gcc/pic32mx/4.5.2/../../../../pic32mx/lib/libmchp_peripheral_32MX250F128B.a(int_tbl_lib.o)

.debug_line     0x00000000     0x5963
 *(.debug_line)
 .debug_line    0x00000000      0x434 obj/xprintf.o
 .debug_line    0x00000434      0xa37 obj/ff.o
 .debug_line    0x00000e6b      0x517 obj/mmc_xmega.o
 .debug_line    0x00001382      0x2fa obj/matrix4.o
 .debug_line    0x0000167c      0x341 obj/triangle.o
 .debug_line    0x000019bd       0xf9 obj/vector2.o
 .debug_line    0x00001ab6      0x670 obj/newmain.o
 .debug_line    0x00002126       0xbb obj/graphiclib.o
 .debug_line    0x000021e1       0xf0 obj/vector3.o
 .debug_line    0x000022d1      0x5c0 obj/graphicdraw.o
 .debug_line    0x00002891      0x560 obj/maze.o
 .debug_line    0x00002df1      0xe27 obj/composite32-high4.o
 .debug_line    0x00003c18       0x57 obj/crtn.o
 .debug_line    0x00003c6f       0x55 obj/crti.o
 .debug_line    0x00003cc4      0x118 obj/crt0.o
 .debug_line    0x00003ddc      0x17c /home/gombe/workspace/machikania/origdev/pic32/compiler/pic32-tools/bin/../lib/gcc/pic32mx/4.5.2/libgcc.a(_divdi3.o)
 .debug_line    0x00003f58       0xd2 /home/gombe/workspace/machikania/origdev/pic32/compiler/pic32-tools/bin/../lib/gcc/pic32mx/4.5.2/libgcc.a(addsf3.o)
 .debug_line    0x0000402a       0xbe /home/gombe/workspace/machikania/origdev/pic32/compiler/pic32-tools/bin/../lib/gcc/pic32mx/4.5.2/libgcc.a(eqsf2.o)
 .debug_line    0x000040e8       0xba /home/gombe/workspace/machikania/origdev/pic32/compiler/pic32-tools/bin/../lib/gcc/pic32mx/4.5.2/libgcc.a(gesf2.o)
 .debug_line    0x000041a2       0xd7 /home/gombe/workspace/machikania/origdev/pic32/compiler/pic32-tools/bin/../lib/gcc/pic32mx/4.5.2/libgcc.a(mulsf3.o)
 .debug_line    0x00004279       0xd2 /home/gombe/workspace/machikania/origdev/pic32/compiler/pic32-tools/bin/../lib/gcc/pic32mx/4.5.2/libgcc.a(subsf3.o)
 .debug_line    0x0000434b       0xc6 /home/gombe/workspace/machikania/origdev/pic32/compiler/pic32-tools/bin/../lib/gcc/pic32mx/4.5.2/libgcc.a(fixsfsi.o)
 .debug_line    0x00004411       0xc7 /home/gombe/workspace/machikania/origdev/pic32/compiler/pic32-tools/bin/../lib/gcc/pic32mx/4.5.2/libgcc.a(floatsisf.o)
 .debug_line    0x000044d8       0xc9 /home/gombe/workspace/machikania/origdev/pic32/compiler/pic32-tools/bin/../lib/gcc/pic32mx/4.5.2/libgcc.a(floatunsisf.o)
 .debug_line    0x000045a1       0xe9 /home/gombe/workspace/machikania/origdev/pic32/compiler/pic32-tools/bin/../lib/gcc/pic32mx/4.5.2/libgcc.a(adddf3.o)
 .debug_line    0x0000468a       0xd6 /home/gombe/workspace/machikania/origdev/pic32/compiler/pic32-tools/bin/../lib/gcc/pic32mx/4.5.2/libgcc.a(divdf3.o)
 .debug_line    0x00004760       0xb9 /home/gombe/workspace/machikania/origdev/pic32/compiler/pic32-tools/bin/../lib/gcc/pic32mx/4.5.2/libgcc.a(eqdf2.o)
 .debug_line    0x00004819       0xba /home/gombe/workspace/machikania/origdev/pic32/compiler/pic32-tools/bin/../lib/gcc/pic32mx/4.5.2/libgcc.a(gedf2.o)
 .debug_line    0x000048d3       0xd9 /home/gombe/workspace/machikania/origdev/pic32/compiler/pic32-tools/bin/../lib/gcc/pic32mx/4.5.2/libgcc.a(muldf3.o)
 .debug_line    0x000049ac       0xeb /home/gombe/workspace/machikania/origdev/pic32/compiler/pic32-tools/bin/../lib/gcc/pic32mx/4.5.2/libgcc.a(subdf3.o)
 .debug_line    0x00004a97       0xc6 /home/gombe/workspace/machikania/origdev/pic32/compiler/pic32-tools/bin/../lib/gcc/pic32mx/4.5.2/libgcc.a(fixdfsi.o)
 .debug_line    0x00004b5d       0xc6 /home/gombe/workspace/machikania/origdev/pic32/compiler/pic32-tools/bin/../lib/gcc/pic32mx/4.5.2/libgcc.a(floatsidf.o)
 .debug_line    0x00004c23       0xc8 /home/gombe/workspace/machikania/origdev/pic32/compiler/pic32-tools/bin/../lib/gcc/pic32mx/4.5.2/libgcc.a(floatunsidf.o)
 .debug_line    0x00004ceb       0xcb /home/gombe/workspace/machikania/origdev/pic32/compiler/pic32-tools/bin/../lib/gcc/pic32mx/4.5.2/libgcc.a(extendsfdf2.o)
 .debug_line    0x00004db6       0xcd /home/gombe/workspace/machikania/origdev/pic32/compiler/pic32-tools/bin/../lib/gcc/pic32mx/4.5.2/libgcc.a(truncdfsf2.o)
 .debug_line    0x00004e83      0x16d /home/gombe/workspace/machikania/origdev/pic32/compiler/pic32-tools/bin/../lib/gcc/pic32mx/4.5.2/libgcc.a(_udivdi3.o)
 .debug_line    0x00004ff0      0x16c /home/gombe/workspace/machikania/origdev/pic32/compiler/pic32-tools/bin/../lib/gcc/pic32mx/4.5.2/libgcc.a(_umoddi3.o)
 .debug_line    0x0000515c       0xba /home/gombe/workspace/machikania/origdev/pic32/compiler/pic32-tools/bin/../lib/gcc/pic32mx/4.5.2/libgcc.a(ledf2.o)
 .debug_line    0x00005216       0xb9 /home/gombe/workspace/machikania/origdev/pic32/compiler/pic32-tools/bin/../lib/gcc/pic32mx/4.5.2/../../../../pic32mx/lib/libmchp_peripheral_32MX250F128B.a(osc_config_lib.o)
 .debug_line    0x000052cf       0x73 /home/gombe/workspace/machikania/origdev/pic32/compiler/pic32-tools/bin/../lib/gcc/pic32mx/4.5.2/../../../../pic32mx/lib/libmchp_peripheral_32MX250F128B.a(int_disable_interrupts_lib.o)
 .debug_line    0x00005342       0x73 /home/gombe/workspace/machikania/origdev/pic32/compiler/pic32-tools/bin/../lib/gcc/pic32mx/4.5.2/../../../../pic32mx/lib/libmchp_peripheral_32MX250F128B.a(int_restore_interrupts_lib.o)
 .debug_line    0x000053b5       0x6e /home/gombe/workspace/machikania/origdev/pic32/compiler/pic32-tools/bin/../lib/gcc/pic32mx/4.5.2/../../../../pic32mx/lib/libmchp_peripheral_32MX250F128B.a(int_enable_mv_int_lib.o)
 .debug_line    0x00005423       0x71 /home/gombe/workspace/machikania/origdev/pic32/compiler/pic32-tools/bin/../lib/gcc/pic32mx/4.5.2/../../../../pic32mx/lib/libmchp_peripheral_32MX250F128B.a(spi_getc_spi2_lib_legacy.o)
 .debug_line    0x00005494       0x71 /home/gombe/workspace/machikania/origdev/pic32/compiler/pic32-tools/bin/../lib/gcc/pic32mx/4.5.2/../../../../pic32mx/lib/libmchp_peripheral_32MX250F128B.a(spi_open_spi2_lib_legacy.o)
 .debug_line    0x00005505        0x0 /home/gombe/workspace/machikania/origdev/pic32/compiler/pic32-tools/bin/../lib/gcc/pic32mx/4.5.2/../../../../pic32mx/lib/libmchp_peripheral_32MX250F128B.a(spi_brg_tbl_lib_legacy.o)
 .debug_line    0x00005505       0x71 /home/gombe/workspace/machikania/origdev/pic32/compiler/pic32-tools/bin/../lib/gcc/pic32mx/4.5.2/../../../../pic32mx/lib/libmchp_peripheral_32MX250F128B.a(dma_chn_clr_ev_flags_lib.o)
 .debug_line    0x00005576       0x7b /home/gombe/workspace/machikania/origdev/pic32/compiler/pic32-tools/bin/../lib/gcc/pic32mx/4.5.2/../../../../pic32mx/lib/libmchp_peripheral_32MX250F128B.a(dma_chn_open_lib.o)
 .debug_line    0x000055f1       0x6b /home/gombe/workspace/machikania/origdev/pic32/compiler/pic32-tools/bin/../lib/gcc/pic32mx/4.5.2/../../../../pic32mx/lib/libmchp_peripheral_32MX250F128B.a(dma_chn_enable_lib.o)
 .debug_line    0x0000565c       0x71 /home/gombe/workspace/machikania/origdev/pic32/compiler/pic32-tools/bin/../lib/gcc/pic32mx/4.5.2/../../../../pic32mx/lib/libmchp_peripheral_32MX250F128B.a(dma_chn_get_ev_flags_lib.o)
 .debug_line    0x000056cd       0x7e /home/gombe/workspace/machikania/origdev/pic32/compiler/pic32-tools/bin/../lib/gcc/pic32mx/4.5.2/../../../../pic32mx/lib/libmchp_peripheral_32MX250F128B.a(dma_chn_write_event_control_flags_lib.o)
 .debug_line    0x0000574b       0x80 /home/gombe/workspace/machikania/origdev/pic32/compiler/pic32-tools/bin/../lib/gcc/pic32mx/4.5.2/../../../../pic32mx/lib/libmchp_peripheral_32MX250F128B.a(dma_chn_set_txfer_lib.o)
 .debug_line    0x000057cb       0xc2 /home/gombe/workspace/machikania/origdev/pic32/compiler/pic32-tools/bin/../lib/gcc/pic32mx/4.5.2/../../../../pic32mx/lib/libmchp_peripheral_32MX250F128B.a(dma_chn_start_txfer_lib.o)
 .debug_line    0x0000588d        0x0 /home/gombe/workspace/machikania/origdev/pic32/compiler/pic32-tools/bin/../lib/gcc/pic32mx/4.5.2/../../../../pic32mx/lib/libmchp_peripheral_32MX250F128B.a(dma_reg_map_tbl_lib.o)
 .debug_line    0x0000588d       0x72 /home/gombe/workspace/machikania/origdev/pic32/compiler/pic32-tools/bin/../lib/gcc/pic32mx/4.5.2/../../../../pic32mx/lib/libmchp_peripheral_32MX250F128B.a(int_enable_interrupts_lib.o)
 .debug_line    0x000058ff       0x64 /home/gombe/workspace/machikania/origdev/pic32/compiler/pic32-tools/bin/../lib/gcc/pic32mx/4.5.2/../../../../pic32mx/lib/libmchp_peripheral_32MX250F128B.a(int_tbl_lib.o)

.debug_frame    0x00000000     0x12a4
 *(.debug_frame)
 .debug_frame   0x00000000      0x150 obj/xprintf.o
 .debug_frame   0x00000150      0x2e4 obj/ff.o
 .debug_frame   0x00000434      0x140 obj/mmc_xmega.o
 .debug_frame   0x00000574       0xf0 obj/matrix4.o
 .debug_frame   0x00000664       0x7c obj/triangle.o
 .debug_frame   0x000006e0       0xe0 obj/vector2.o
 .debug_frame   0x000007c0       0x84 obj/newmain.o
 .debug_frame   0x00000844       0x20 obj/vector3.o
 .debug_frame   0x00000864      0x190 obj/graphicdraw.o
 .debug_frame   0x000009f4      0x10c obj/maze.o
 .debug_frame   0x00000b00      0x280 obj/composite32-high4.o
 .debug_frame   0x00000d80       0x20 /home/gombe/workspace/machikania/origdev/pic32/compiler/pic32-tools/bin/../lib/gcc/pic32mx/4.5.2/libgcc.a(addsf3.o)
 .debug_frame   0x00000da0       0x20 /home/gombe/workspace/machikania/origdev/pic32/compiler/pic32-tools/bin/../lib/gcc/pic32mx/4.5.2/libgcc.a(eqsf2.o)
 .debug_frame   0x00000dc0       0x20 /home/gombe/workspace/machikania/origdev/pic32/compiler/pic32-tools/bin/../lib/gcc/pic32mx/4.5.2/libgcc.a(gesf2.o)
 .debug_frame   0x00000de0       0x28 /home/gombe/workspace/machikania/origdev/pic32/compiler/pic32-tools/bin/../lib/gcc/pic32mx/4.5.2/libgcc.a(mulsf3.o)
 .debug_frame   0x00000e08       0x20 /home/gombe/workspace/machikania/origdev/pic32/compiler/pic32-tools/bin/../lib/gcc/pic32mx/4.5.2/libgcc.a(subsf3.o)
 .debug_frame   0x00000e28       0x20 /home/gombe/workspace/machikania/origdev/pic32/compiler/pic32-tools/bin/../lib/gcc/pic32mx/4.5.2/libgcc.a(fixsfsi.o)
 .debug_frame   0x00000e48       0x20 /home/gombe/workspace/machikania/origdev/pic32/compiler/pic32-tools/bin/../lib/gcc/pic32mx/4.5.2/libgcc.a(floatsisf.o)
 .debug_frame   0x00000e68       0x20 /home/gombe/workspace/machikania/origdev/pic32/compiler/pic32-tools/bin/../lib/gcc/pic32mx/4.5.2/libgcc.a(floatunsisf.o)
 .debug_frame   0x00000e88       0x20 /home/gombe/workspace/machikania/origdev/pic32/compiler/pic32-tools/bin/../lib/gcc/pic32mx/4.5.2/libgcc.a(adddf3.o)
 .debug_frame   0x00000ea8       0x28 /home/gombe/workspace/machikania/origdev/pic32/compiler/pic32-tools/bin/../lib/gcc/pic32mx/4.5.2/libgcc.a(divdf3.o)
 .debug_frame   0x00000ed0       0x20 /home/gombe/workspace/machikania/origdev/pic32/compiler/pic32-tools/bin/../lib/gcc/pic32mx/4.5.2/libgcc.a(eqdf2.o)
 .debug_frame   0x00000ef0       0x20 /home/gombe/workspace/machikania/origdev/pic32/compiler/pic32-tools/bin/../lib/gcc/pic32mx/4.5.2/libgcc.a(gedf2.o)
 .debug_frame   0x00000f10       0x28 /home/gombe/workspace/machikania/origdev/pic32/compiler/pic32-tools/bin/../lib/gcc/pic32mx/4.5.2/libgcc.a(muldf3.o)
 .debug_frame   0x00000f38       0x20 /home/gombe/workspace/machikania/origdev/pic32/compiler/pic32-tools/bin/../lib/gcc/pic32mx/4.5.2/libgcc.a(subdf3.o)
 .debug_frame   0x00000f58       0x20 /home/gombe/workspace/machikania/origdev/pic32/compiler/pic32-tools/bin/../lib/gcc/pic32mx/4.5.2/libgcc.a(fixdfsi.o)
 .debug_frame   0x00000f78       0x20 /home/gombe/workspace/machikania/origdev/pic32/compiler/pic32-tools/bin/../lib/gcc/pic32mx/4.5.2/libgcc.a(floatsidf.o)
 .debug_frame   0x00000f98       0x20 /home/gombe/workspace/machikania/origdev/pic32/compiler/pic32-tools/bin/../lib/gcc/pic32mx/4.5.2/libgcc.a(floatunsidf.o)
 .debug_frame   0x00000fb8       0x20 /home/gombe/workspace/machikania/origdev/pic32/compiler/pic32-tools/bin/../lib/gcc/pic32mx/4.5.2/libgcc.a(extendsfdf2.o)
 .debug_frame   0x00000fd8       0x20 /home/gombe/workspace/machikania/origdev/pic32/compiler/pic32-tools/bin/../lib/gcc/pic32mx/4.5.2/libgcc.a(truncdfsf2.o)
 .debug_frame   0x00000ff8       0x20 /home/gombe/workspace/machikania/origdev/pic32/compiler/pic32-tools/bin/../lib/gcc/pic32mx/4.5.2/libgcc.a(ledf2.o)
 .debug_frame   0x00001018       0x30 /home/gombe/workspace/machikania/origdev/pic32/compiler/pic32-tools/bin/../lib/gcc/pic32mx/4.5.2/../../../../pic32mx/lib/libmchp_peripheral_32MX250F128B.a(osc_config_lib.o)
 .debug_frame   0x00001048       0x20 /home/gombe/workspace/machikania/origdev/pic32/compiler/pic32-tools/bin/../lib/gcc/pic32mx/4.5.2/../../../../pic32mx/lib/libmchp_peripheral_32MX250F128B.a(int_disable_interrupts_lib.o)
 .debug_frame   0x00001068       0x20 /home/gombe/workspace/machikania/origdev/pic32/compiler/pic32-tools/bin/../lib/gcc/pic32mx/4.5.2/../../../../pic32mx/lib/libmchp_peripheral_32MX250F128B.a(int_restore_interrupts_lib.o)
 .debug_frame   0x00001088       0x28 /home/gombe/workspace/machikania/origdev/pic32/compiler/pic32-tools/bin/../lib/gcc/pic32mx/4.5.2/../../../../pic32mx/lib/libmchp_peripheral_32MX250F128B.a(int_enable_mv_int_lib.o)
 .debug_frame   0x000010b0       0x20 /home/gombe/workspace/machikania/origdev/pic32/compiler/pic32-tools/bin/../lib/gcc/pic32mx/4.5.2/../../../../pic32mx/lib/libmchp_peripheral_32MX250F128B.a(spi_getc_spi2_lib_legacy.o)
 .debug_frame   0x000010d0       0x20 /home/gombe/workspace/machikania/origdev/pic32/compiler/pic32-tools/bin/../lib/gcc/pic32mx/4.5.2/../../../../pic32mx/lib/libmchp_peripheral_32MX250F128B.a(spi_open_spi2_lib_legacy.o)
 .debug_frame   0x000010f0       0x20 /home/gombe/workspace/machikania/origdev/pic32/compiler/pic32-tools/bin/../lib/gcc/pic32mx/4.5.2/../../../../pic32mx/lib/libmchp_peripheral_32MX250F128B.a(dma_chn_clr_ev_flags_lib.o)
 .debug_frame   0x00001110       0x34 /home/gombe/workspace/machikania/origdev/pic32/compiler/pic32-tools/bin/../lib/gcc/pic32mx/4.5.2/../../../../pic32mx/lib/libmchp_peripheral_32MX250F128B.a(dma_chn_open_lib.o)
 .debug_frame   0x00001144       0x20 /home/gombe/workspace/machikania/origdev/pic32/compiler/pic32-tools/bin/../lib/gcc/pic32mx/4.5.2/../../../../pic32mx/lib/libmchp_peripheral_32MX250F128B.a(dma_chn_enable_lib.o)
 .debug_frame   0x00001164       0x20 /home/gombe/workspace/machikania/origdev/pic32/compiler/pic32-tools/bin/../lib/gcc/pic32mx/4.5.2/../../../../pic32mx/lib/libmchp_peripheral_32MX250F128B.a(dma_chn_get_ev_flags_lib.o)
 .debug_frame   0x00001184       0x20 /home/gombe/workspace/machikania/origdev/pic32/compiler/pic32-tools/bin/../lib/gcc/pic32mx/4.5.2/../../../../pic32mx/lib/libmchp_peripheral_32MX250F128B.a(dma_chn_write_event_control_flags_lib.o)
 .debug_frame   0x000011a4       0x20 /home/gombe/workspace/machikania/origdev/pic32/compiler/pic32-tools/bin/../lib/gcc/pic32mx/4.5.2/../../../../pic32mx/lib/libmchp_peripheral_32MX250F128B.a(dma_chn_set_txfer_lib.o)
 .debug_frame   0x000011c4       0x20 /home/gombe/workspace/machikania/origdev/pic32/compiler/pic32-tools/bin/../lib/gcc/pic32mx/4.5.2/../../../../pic32mx/lib/libmchp_peripheral_32MX250F128B.a(dma_chn_start_txfer_lib.o)
 .debug_frame   0x000011e4       0x20 /home/gombe/workspace/machikania/origdev/pic32/compiler/pic32-tools/bin/../lib/gcc/pic32mx/4.5.2/../../../../pic32mx/lib/libmchp_peripheral_32MX250F128B.a(int_enable_interrupts_lib.o)
 .debug_frame   0x00001204       0xa0 /home/gombe/workspace/machikania/origdev/pic32/compiler/pic32-tools/bin/../lib/gcc/pic32mx/4.5.2/../../../../pic32mx/lib/libmchp_peripheral_32MX250F128B.a(int_tbl_lib.o)

.debug_str      0x00000000      0x32c
 *(.debug_str)
 .debug_str     0x00000000       0x13 obj/xprintf.o
 .debug_str     0x00000013        0xa obj/ff.o
 .debug_str     0x0000001d      0x11f obj/mmc_xmega.o
 .debug_str     0x0000013c       0x24 obj/matrix4.o
 .debug_str     0x00000160       0x5b obj/triangle.o
 .debug_str     0x000001bb       0x21 obj/vector2.o
 .debug_str     0x000001dc       0x92 obj/newmain.o
 .debug_str     0x0000026e        0x0 obj/graphiclib.o
 .debug_str     0x0000026e        0x8 obj/vector3.o
 .debug_str     0x00000276       0x5b obj/graphicdraw.o
 .debug_str     0x000002d1       0x5b obj/maze.o
 .debug_str     0x0000032c        0x0 obj/composite32-high4.o
 .debug_str     0x0000032c        0x0 /home/gombe/workspace/machikania/origdev/pic32/compiler/pic32-tools/bin/../lib/gcc/pic32mx/4.5.2/libgcc.a(_divdi3.o)
 .debug_str     0x0000032c        0x0 /home/gombe/workspace/machikania/origdev/pic32/compiler/pic32-tools/bin/../lib/gcc/pic32mx/4.5.2/libgcc.a(addsf3.o)
 .debug_str     0x0000032c        0x0 /home/gombe/workspace/machikania/origdev/pic32/compiler/pic32-tools/bin/../lib/gcc/pic32mx/4.5.2/libgcc.a(eqsf2.o)
 .debug_str     0x0000032c        0x0 /home/gombe/workspace/machikania/origdev/pic32/compiler/pic32-tools/bin/../lib/gcc/pic32mx/4.5.2/libgcc.a(gesf2.o)
 .debug_str     0x0000032c        0x0 /home/gombe/workspace/machikania/origdev/pic32/compiler/pic32-tools/bin/../lib/gcc/pic32mx/4.5.2/libgcc.a(mulsf3.o)
 .debug_str     0x0000032c        0x0 /home/gombe/workspace/machikania/origdev/pic32/compiler/pic32-tools/bin/../lib/gcc/pic32mx/4.5.2/libgcc.a(subsf3.o)
 .debug_str     0x0000032c        0x0 /home/gombe/workspace/machikania/origdev/pic32/compiler/pic32-tools/bin/../lib/gcc/pic32mx/4.5.2/libgcc.a(fixsfsi.o)
 .debug_str     0x0000032c        0x0 /home/gombe/workspace/machikania/origdev/pic32/compiler/pic32-tools/bin/../lib/gcc/pic32mx/4.5.2/libgcc.a(floatsisf.o)
 .debug_str     0x0000032c        0x0 /home/gombe/workspace/machikania/origdev/pic32/compiler/pic32-tools/bin/../lib/gcc/pic32mx/4.5.2/libgcc.a(floatunsisf.o)
 .debug_str     0x0000032c        0x0 /home/gombe/workspace/machikania/origdev/pic32/compiler/pic32-tools/bin/../lib/gcc/pic32mx/4.5.2/libgcc.a(adddf3.o)
 .debug_str     0x0000032c        0x0 /home/gombe/workspace/machikania/origdev/pic32/compiler/pic32-tools/bin/../lib/gcc/pic32mx/4.5.2/libgcc.a(divdf3.o)
 .debug_str     0x0000032c        0x0 /home/gombe/workspace/machikania/origdev/pic32/compiler/pic32-tools/bin/../lib/gcc/pic32mx/4.5.2/libgcc.a(eqdf2.o)
 .debug_str     0x0000032c        0x0 /home/gombe/workspace/machikania/origdev/pic32/compiler/pic32-tools/bin/../lib/gcc/pic32mx/4.5.2/libgcc.a(gedf2.o)
 .debug_str     0x0000032c        0x0 /home/gombe/workspace/machikania/origdev/pic32/compiler/pic32-tools/bin/../lib/gcc/pic32mx/4.5.2/libgcc.a(muldf3.o)
 .debug_str     0x0000032c        0x0 /home/gombe/workspace/machikania/origdev/pic32/compiler/pic32-tools/bin/../lib/gcc/pic32mx/4.5.2/libgcc.a(subdf3.o)
 .debug_str     0x0000032c        0x0 /home/gombe/workspace/machikania/origdev/pic32/compiler/pic32-tools/bin/../lib/gcc/pic32mx/4.5.2/libgcc.a(fixdfsi.o)
 .debug_str     0x0000032c        0x0 /home/gombe/workspace/machikania/origdev/pic32/compiler/pic32-tools/bin/../lib/gcc/pic32mx/4.5.2/libgcc.a(floatsidf.o)
 .debug_str     0x0000032c        0x0 /home/gombe/workspace/machikania/origdev/pic32/compiler/pic32-tools/bin/../lib/gcc/pic32mx/4.5.2/libgcc.a(floatunsidf.o)
 .debug_str     0x0000032c        0x0 /home/gombe/workspace/machikania/origdev/pic32/compiler/pic32-tools/bin/../lib/gcc/pic32mx/4.5.2/libgcc.a(extendsfdf2.o)
 .debug_str     0x0000032c        0x0 /home/gombe/workspace/machikania/origdev/pic32/compiler/pic32-tools/bin/../lib/gcc/pic32mx/4.5.2/libgcc.a(truncdfsf2.o)
 .debug_str     0x0000032c        0x0 /home/gombe/workspace/machikania/origdev/pic32/compiler/pic32-tools/bin/../lib/gcc/pic32mx/4.5.2/libgcc.a(_udivdi3.o)
 .debug_str     0x0000032c        0x0 /home/gombe/workspace/machikania/origdev/pic32/compiler/pic32-tools/bin/../lib/gcc/pic32mx/4.5.2/libgcc.a(_umoddi3.o)
 .debug_str     0x0000032c        0x0 /home/gombe/workspace/machikania/origdev/pic32/compiler/pic32-tools/bin/../lib/gcc/pic32mx/4.5.2/libgcc.a(ledf2.o)
 .debug_str     0x0000032c        0x0 /home/gombe/workspace/machikania/origdev/pic32/compiler/pic32-tools/bin/../lib/gcc/pic32mx/4.5.2/../../../../pic32mx/lib/libmchp_peripheral_32MX250F128B.a(osc_config_lib.o)
 .debug_str     0x0000032c        0x0 /home/gombe/workspace/machikania/origdev/pic32/compiler/pic32-tools/bin/../lib/gcc/pic32mx/4.5.2/../../../../pic32mx/lib/libmchp_peripheral_32MX250F128B.a(int_disable_interrupts_lib.o)
 .debug_str     0x0000032c        0x0 /home/gombe/workspace/machikania/origdev/pic32/compiler/pic32-tools/bin/../lib/gcc/pic32mx/4.5.2/../../../../pic32mx/lib/libmchp_peripheral_32MX250F128B.a(int_restore_interrupts_lib.o)
 .debug_str     0x0000032c        0x0 /home/gombe/workspace/machikania/origdev/pic32/compiler/pic32-tools/bin/../lib/gcc/pic32mx/4.5.2/../../../../pic32mx/lib/libmchp_peripheral_32MX250F128B.a(int_enable_mv_int_lib.o)
 .debug_str     0x0000032c        0x0 /home/gombe/workspace/machikania/origdev/pic32/compiler/pic32-tools/bin/../lib/gcc/pic32mx/4.5.2/../../../../pic32mx/lib/libmchp_peripheral_32MX250F128B.a(spi_getc_spi2_lib_legacy.o)
 .debug_str     0x0000032c        0x0 /home/gombe/workspace/machikania/origdev/pic32/compiler/pic32-tools/bin/../lib/gcc/pic32mx/4.5.2/../../../../pic32mx/lib/libmchp_peripheral_32MX250F128B.a(spi_open_spi2_lib_legacy.o)
 .debug_str     0x0000032c        0x0 /home/gombe/workspace/machikania/origdev/pic32/compiler/pic32-tools/bin/../lib/gcc/pic32mx/4.5.2/../../../../pic32mx/lib/libmchp_peripheral_32MX250F128B.a(spi_brg_tbl_lib_legacy.o)
 .debug_str     0x0000032c        0x0 /home/gombe/workspace/machikania/origdev/pic32/compiler/pic32-tools/bin/../lib/gcc/pic32mx/4.5.2/../../../../pic32mx/lib/libmchp_peripheral_32MX250F128B.a(dma_chn_clr_ev_flags_lib.o)
 .debug_str     0x0000032c        0x0 /home/gombe/workspace/machikania/origdev/pic32/compiler/pic32-tools/bin/../lib/gcc/pic32mx/4.5.2/../../../../pic32mx/lib/libmchp_peripheral_32MX250F128B.a(dma_chn_open_lib.o)
 .debug_str     0x0000032c        0x0 /home/gombe/workspace/machikania/origdev/pic32/compiler/pic32-tools/bin/../lib/gcc/pic32mx/4.5.2/../../../../pic32mx/lib/libmchp_peripheral_32MX250F128B.a(dma_chn_enable_lib.o)
 .debug_str     0x0000032c        0x0 /home/gombe/workspace/machikania/origdev/pic32/compiler/pic32-tools/bin/../lib/gcc/pic32mx/4.5.2/../../../../pic32mx/lib/libmchp_peripheral_32MX250F128B.a(dma_chn_get_ev_flags_lib.o)
 .debug_str     0x0000032c        0x0 /home/gombe/workspace/machikania/origdev/pic32/compiler/pic32-tools/bin/../lib/gcc/pic32mx/4.5.2/../../../../pic32mx/lib/libmchp_peripheral_32MX250F128B.a(dma_chn_write_event_control_flags_lib.o)
 .debug_str     0x0000032c        0x0 /home/gombe/workspace/machikania/origdev/pic32/compiler/pic32-tools/bin/../lib/gcc/pic32mx/4.5.2/../../../../pic32mx/lib/libmchp_peripheral_32MX250F128B.a(dma_chn_set_txfer_lib.o)
 .debug_str     0x0000032c        0x0 /home/gombe/workspace/machikania/origdev/pic32/compiler/pic32-tools/bin/../lib/gcc/pic32mx/4.5.2/../../../../pic32mx/lib/libmchp_peripheral_32MX250F128B.a(dma_chn_start_txfer_lib.o)
 .debug_str     0x0000032c        0x0 /home/gombe/workspace/machikania/origdev/pic32/compiler/pic32-tools/bin/../lib/gcc/pic32mx/4.5.2/../../../../pic32mx/lib/libmchp_peripheral_32MX250F128B.a(dma_reg_map_tbl_lib.o)
 .debug_str     0x0000032c        0x0 /home/gombe/workspace/machikania/origdev/pic32/compiler/pic32-tools/bin/../lib/gcc/pic32mx/4.5.2/../../../../pic32mx/lib/libmchp_peripheral_32MX250F128B.a(int_enable_interrupts_lib.o)
 .debug_str     0x0000032c        0x0 /home/gombe/workspace/machikania/origdev/pic32/compiler/pic32-tools/bin/../lib/gcc/pic32mx/4.5.2/../../../../pic32mx/lib/libmchp_peripheral_32MX250F128B.a(int_tbl_lib.o)

.debug_loc      0x00000000     0xd070
 *(.debug_loc)
 .debug_loc     0x00000000      0xddd obj/xprintf.o
 .debug_loc     0x00000ddd     0x2c16 obj/ff.o
 .debug_loc     0x000039f3      0x55c obj/mmc_xmega.o
 .debug_loc     0x00003f4f      0x311 obj/matrix4.o
 .debug_loc     0x00004260      0x585 obj/triangle.o
 .debug_loc     0x000047e5      0x100 obj/vector2.o
 .debug_loc     0x000048e5      0x24d obj/newmain.o
 .debug_loc     0x00004b32       0x6d obj/vector3.o
 .debug_loc     0x00004b9f      0x8fb obj/graphicdraw.o
 .debug_loc     0x0000549a      0x56f obj/maze.o
 .debug_loc     0x00005a09     0x1571 obj/composite32-high4.o
 .debug_loc     0x00006f7a      0x94e /home/gombe/workspace/machikania/origdev/pic32/compiler/pic32-tools/bin/../lib/gcc/pic32mx/4.5.2/libgcc.a(_divdi3.o)
 .debug_loc     0x000078c8      0x6c3 /home/gombe/workspace/machikania/origdev/pic32/compiler/pic32-tools/bin/../lib/gcc/pic32mx/4.5.2/libgcc.a(addsf3.o)
 .debug_loc     0x00007f8b       0x5f /home/gombe/workspace/machikania/origdev/pic32/compiler/pic32-tools/bin/../lib/gcc/pic32mx/4.5.2/libgcc.a(eqsf2.o)
 .debug_loc     0x00007fea       0xb9 /home/gombe/workspace/machikania/origdev/pic32/compiler/pic32-tools/bin/../lib/gcc/pic32mx/4.5.2/libgcc.a(gesf2.o)
 .debug_loc     0x000080a3      0x322 /home/gombe/workspace/machikania/origdev/pic32/compiler/pic32-tools/bin/../lib/gcc/pic32mx/4.5.2/libgcc.a(mulsf3.o)
 .debug_loc     0x000083c5      0x6ce /home/gombe/workspace/machikania/origdev/pic32/compiler/pic32-tools/bin/../lib/gcc/pic32mx/4.5.2/libgcc.a(subsf3.o)
 .debug_loc     0x00008a93       0x96 /home/gombe/workspace/machikania/origdev/pic32/compiler/pic32-tools/bin/../lib/gcc/pic32mx/4.5.2/libgcc.a(fixsfsi.o)
 .debug_loc     0x00008b29      0x12a /home/gombe/workspace/machikania/origdev/pic32/compiler/pic32-tools/bin/../lib/gcc/pic32mx/4.5.2/libgcc.a(floatsisf.o)
 .debug_loc     0x00008c53      0x117 /home/gombe/workspace/machikania/origdev/pic32/compiler/pic32-tools/bin/../lib/gcc/pic32mx/4.5.2/libgcc.a(floatunsisf.o)
 .debug_loc     0x00008d6a      0xd93 /home/gombe/workspace/machikania/origdev/pic32/compiler/pic32-tools/bin/../lib/gcc/pic32mx/4.5.2/libgcc.a(adddf3.o)
 .debug_loc     0x00009afd      0xa78 /home/gombe/workspace/machikania/origdev/pic32/compiler/pic32-tools/bin/../lib/gcc/pic32mx/4.5.2/libgcc.a(divdf3.o)
 .debug_loc     0x0000a575       0x2b /home/gombe/workspace/machikania/origdev/pic32/compiler/pic32-tools/bin/../lib/gcc/pic32mx/4.5.2/libgcc.a(eqdf2.o)
 .debug_loc     0x0000a5a0       0x90 /home/gombe/workspace/machikania/origdev/pic32/compiler/pic32-tools/bin/../lib/gcc/pic32mx/4.5.2/libgcc.a(gedf2.o)
 .debug_loc     0x0000a630      0x699 /home/gombe/workspace/machikania/origdev/pic32/compiler/pic32-tools/bin/../lib/gcc/pic32mx/4.5.2/libgcc.a(muldf3.o)
 .debug_loc     0x0000acc9      0xcf3 /home/gombe/workspace/machikania/origdev/pic32/compiler/pic32-tools/bin/../lib/gcc/pic32mx/4.5.2/libgcc.a(subdf3.o)
 .debug_loc     0x0000b9bc       0xa6 /home/gombe/workspace/machikania/origdev/pic32/compiler/pic32-tools/bin/../lib/gcc/pic32mx/4.5.2/libgcc.a(fixdfsi.o)
 .debug_loc     0x0000ba62       0xf3 /home/gombe/workspace/machikania/origdev/pic32/compiler/pic32-tools/bin/../lib/gcc/pic32mx/4.5.2/libgcc.a(floatsidf.o)
 .debug_loc     0x0000bb55       0xca /home/gombe/workspace/machikania/origdev/pic32/compiler/pic32-tools/bin/../lib/gcc/pic32mx/4.5.2/libgcc.a(floatunsidf.o)
 .debug_loc     0x0000bc1f      0x174 /home/gombe/workspace/machikania/origdev/pic32/compiler/pic32-tools/bin/../lib/gcc/pic32mx/4.5.2/libgcc.a(extendsfdf2.o)
 .debug_loc     0x0000bd93      0x194 /home/gombe/workspace/machikania/origdev/pic32/compiler/pic32-tools/bin/../lib/gcc/pic32mx/4.5.2/libgcc.a(truncdfsf2.o)
 .debug_loc     0x0000bf27      0x8c9 /home/gombe/workspace/machikania/origdev/pic32/compiler/pic32-tools/bin/../lib/gcc/pic32mx/4.5.2/libgcc.a(_udivdi3.o)
 .debug_loc     0x0000c7f0      0x7f0 /home/gombe/workspace/machikania/origdev/pic32/compiler/pic32-tools/bin/../lib/gcc/pic32mx/4.5.2/libgcc.a(_umoddi3.o)
 .debug_loc     0x0000cfe0       0x90 /home/gombe/workspace/machikania/origdev/pic32/compiler/pic32-tools/bin/../lib/gcc/pic32mx/4.5.2/libgcc.a(ledf2.o)

.debug_macinfo
 *(.debug_macinfo)

.debug_weaknames
 *(.debug_weaknames)

.debug_funcnames
 *(.debug_funcnames)

.debug_typenames
 *(.debug_typenames)

.debug_varnames
 *(.debug_varnames)

.debug_pubtypes
                0x00000000      0xab6
 *(.debug_pubtypes)
 .debug_pubtypes
                0x00000000       0x31 obj/xprintf.o
 .debug_pubtypes
                0x00000031       0x89 obj/ff.o
 .debug_pubtypes
                0x000000ba      0x145 obj/mmc_xmega.o
 .debug_pubtypes
                0x000001ff       0x51 obj/matrix4.o
 .debug_pubtypes
                0x00000250       0x8d obj/triangle.o
 .debug_pubtypes
                0x000002dd       0x1e obj/vector2.o
 .debug_pubtypes
                0x000002fb       0xc5 obj/newmain.o
 .debug_pubtypes
                0x000003c0       0x12 obj/graphiclib.o
 .debug_pubtypes
                0x000003d2       0x38 obj/vector3.o
 .debug_pubtypes
                0x0000040a       0x7d obj/graphicdraw.o
 .debug_pubtypes
                0x00000487       0x93 obj/maze.o
 .debug_pubtypes
                0x0000051a       0x1b obj/composite32-high4.o
 .debug_pubtypes
                0x00000535       0x59 /home/gombe/workspace/machikania/origdev/pic32/compiler/pic32-tools/bin/../lib/gcc/pic32mx/4.5.2/libgcc.a(_divdi3.o)
 .debug_pubtypes
                0x0000058e       0x2d /home/gombe/workspace/machikania/origdev/pic32/compiler/pic32-tools/bin/../lib/gcc/pic32mx/4.5.2/libgcc.a(addsf3.o)
 .debug_pubtypes
                0x000005bb       0x2d /home/gombe/workspace/machikania/origdev/pic32/compiler/pic32-tools/bin/../lib/gcc/pic32mx/4.5.2/libgcc.a(eqsf2.o)
 .debug_pubtypes
                0x000005e8       0x2d /home/gombe/workspace/machikania/origdev/pic32/compiler/pic32-tools/bin/../lib/gcc/pic32mx/4.5.2/libgcc.a(gesf2.o)
 .debug_pubtypes
                0x00000615       0x45 /home/gombe/workspace/machikania/origdev/pic32/compiler/pic32-tools/bin/../lib/gcc/pic32mx/4.5.2/libgcc.a(mulsf3.o)
 .debug_pubtypes
                0x0000065a       0x2d /home/gombe/workspace/machikania/origdev/pic32/compiler/pic32-tools/bin/../lib/gcc/pic32mx/4.5.2/libgcc.a(subsf3.o)
 .debug_pubtypes
                0x00000687       0x44 /home/gombe/workspace/machikania/origdev/pic32/compiler/pic32-tools/bin/../lib/gcc/pic32mx/4.5.2/libgcc.a(fixsfsi.o)
 .debug_pubtypes
                0x000006cb       0x44 /home/gombe/workspace/machikania/origdev/pic32/compiler/pic32-tools/bin/../lib/gcc/pic32mx/4.5.2/libgcc.a(floatsisf.o)
 .debug_pubtypes
                0x0000070f       0x39 /home/gombe/workspace/machikania/origdev/pic32/compiler/pic32-tools/bin/../lib/gcc/pic32mx/4.5.2/libgcc.a(floatunsisf.o)
 .debug_pubtypes
                0x00000748       0x2d /home/gombe/workspace/machikania/origdev/pic32/compiler/pic32-tools/bin/../lib/gcc/pic32mx/4.5.2/libgcc.a(adddf3.o)
 .debug_pubtypes
                0x00000775       0x45 /home/gombe/workspace/machikania/origdev/pic32/compiler/pic32-tools/bin/../lib/gcc/pic32mx/4.5.2/libgcc.a(divdf3.o)
 .debug_pubtypes
                0x000007ba       0x2d /home/gombe/workspace/machikania/origdev/pic32/compiler/pic32-tools/bin/../lib/gcc/pic32mx/4.5.2/libgcc.a(eqdf2.o)
 .debug_pubtypes
                0x000007e7       0x2d /home/gombe/workspace/machikania/origdev/pic32/compiler/pic32-tools/bin/../lib/gcc/pic32mx/4.5.2/libgcc.a(gedf2.o)
 .debug_pubtypes
                0x00000814       0x45 /home/gombe/workspace/machikania/origdev/pic32/compiler/pic32-tools/bin/../lib/gcc/pic32mx/4.5.2/libgcc.a(muldf3.o)
 .debug_pubtypes
                0x00000859       0x2d /home/gombe/workspace/machikania/origdev/pic32/compiler/pic32-tools/bin/../lib/gcc/pic32mx/4.5.2/libgcc.a(subdf3.o)
 .debug_pubtypes
                0x00000886       0x44 /home/gombe/workspace/machikania/origdev/pic32/compiler/pic32-tools/bin/../lib/gcc/pic32mx/4.5.2/libgcc.a(fixdfsi.o)
 .debug_pubtypes
                0x000008ca       0x44 /home/gombe/workspace/machikania/origdev/pic32/compiler/pic32-tools/bin/../lib/gcc/pic32mx/4.5.2/libgcc.a(floatsidf.o)
 .debug_pubtypes
                0x0000090e       0x39 /home/gombe/workspace/machikania/origdev/pic32/compiler/pic32-tools/bin/../lib/gcc/pic32mx/4.5.2/libgcc.a(floatunsidf.o)
 .debug_pubtypes
                0x00000947       0x48 /home/gombe/workspace/machikania/origdev/pic32/compiler/pic32-tools/bin/../lib/gcc/pic32mx/4.5.2/libgcc.a(extendsfdf2.o)
 .debug_pubtypes
                0x0000098f       0x48 /home/gombe/workspace/machikania/origdev/pic32/compiler/pic32-tools/bin/../lib/gcc/pic32mx/4.5.2/libgcc.a(truncdfsf2.o)
 .debug_pubtypes
                0x000009d7       0x59 /home/gombe/workspace/machikania/origdev/pic32/compiler/pic32-tools/bin/../lib/gcc/pic32mx/4.5.2/libgcc.a(_udivdi3.o)
 .debug_pubtypes
                0x00000a30       0x59 /home/gombe/workspace/machikania/origdev/pic32/compiler/pic32-tools/bin/../lib/gcc/pic32mx/4.5.2/libgcc.a(_umoddi3.o)
 .debug_pubtypes
                0x00000a89       0x2d /home/gombe/workspace/machikania/origdev/pic32/compiler/pic32-tools/bin/../lib/gcc/pic32mx/4.5.2/libgcc.a(ledf2.o)

.debug_ranges   0x00000000      0x1a8
 *(.debug_ranges)
 .debug_ranges  0x00000000       0x20 obj/crtn.o
 .debug_ranges  0x00000020       0x20 obj/crti.o
 .debug_ranges  0x00000040       0x38 obj/crt0.o
 .debug_ranges  0x00000078       0x10 /home/gombe/workspace/machikania/origdev/pic32/compiler/pic32-tools/bin/../lib/gcc/pic32mx/4.5.2/../../../../pic32mx/lib/libmchp_peripheral_32MX250F128B.a(osc_config_lib.o)
 .debug_ranges  0x00000088       0x10 /home/gombe/workspace/machikania/origdev/pic32/compiler/pic32-tools/bin/../lib/gcc/pic32mx/4.5.2/../../../../pic32mx/lib/libmchp_peripheral_32MX250F128B.a(int_disable_interrupts_lib.o)
 .debug_ranges  0x00000098       0x10 /home/gombe/workspace/machikania/origdev/pic32/compiler/pic32-tools/bin/../lib/gcc/pic32mx/4.5.2/../../../../pic32mx/lib/libmchp_peripheral_32MX250F128B.a(int_restore_interrupts_lib.o)
 .debug_ranges  0x000000a8       0x10 /home/gombe/workspace/machikania/origdev/pic32/compiler/pic32-tools/bin/../lib/gcc/pic32mx/4.5.2/../../../../pic32mx/lib/libmchp_peripheral_32MX250F128B.a(int_enable_mv_int_lib.o)
 .debug_ranges  0x000000b8       0x10 /home/gombe/workspace/machikania/origdev/pic32/compiler/pic32-tools/bin/../lib/gcc/pic32mx/4.5.2/../../../../pic32mx/lib/libmchp_peripheral_32MX250F128B.a(spi_getc_spi2_lib_legacy.o)
 .debug_ranges  0x000000c8       0x10 /home/gombe/workspace/machikania/origdev/pic32/compiler/pic32-tools/bin/../lib/gcc/pic32mx/4.5.2/../../../../pic32mx/lib/libmchp_peripheral_32MX250F128B.a(spi_open_spi2_lib_legacy.o)
 .debug_ranges  0x000000d8       0x10 /home/gombe/workspace/machikania/origdev/pic32/compiler/pic32-tools/bin/../lib/gcc/pic32mx/4.5.2/../../../../pic32mx/lib/libmchp_peripheral_32MX250F128B.a(dma_chn_clr_ev_flags_lib.o)
 .debug_ranges  0x000000e8       0x10 /home/gombe/workspace/machikania/origdev/pic32/compiler/pic32-tools/bin/../lib/gcc/pic32mx/4.5.2/../../../../pic32mx/lib/libmchp_peripheral_32MX250F128B.a(dma_chn_open_lib.o)
 .debug_ranges  0x000000f8       0x10 /home/gombe/workspace/machikania/origdev/pic32/compiler/pic32-tools/bin/../lib/gcc/pic32mx/4.5.2/../../../../pic32mx/lib/libmchp_peripheral_32MX250F128B.a(dma_chn_enable_lib.o)
 .debug_ranges  0x00000108       0x10 /home/gombe/workspace/machikania/origdev/pic32/compiler/pic32-tools/bin/../lib/gcc/pic32mx/4.5.2/../../../../pic32mx/lib/libmchp_peripheral_32MX250F128B.a(dma_chn_get_ev_flags_lib.o)
 .debug_ranges  0x00000118       0x10 /home/gombe/workspace/machikania/origdev/pic32/compiler/pic32-tools/bin/../lib/gcc/pic32mx/4.5.2/../../../../pic32mx/lib/libmchp_peripheral_32MX250F128B.a(dma_chn_write_event_control_flags_lib.o)
 .debug_ranges  0x00000128       0x10 /home/gombe/workspace/machikania/origdev/pic32/compiler/pic32-tools/bin/../lib/gcc/pic32mx/4.5.2/../../../../pic32mx/lib/libmchp_peripheral_32MX250F128B.a(dma_chn_set_txfer_lib.o)
 .debug_ranges  0x00000138       0x10 /home/gombe/workspace/machikania/origdev/pic32/compiler/pic32-tools/bin/../lib/gcc/pic32mx/4.5.2/../../../../pic32mx/lib/libmchp_peripheral_32MX250F128B.a(dma_chn_start_txfer_lib.o)
 .debug_ranges  0x00000148       0x10 /home/gombe/workspace/machikania/origdev/pic32/compiler/pic32-tools/bin/../lib/gcc/pic32mx/4.5.2/../../../../pic32mx/lib/libmchp_peripheral_32MX250F128B.a(int_enable_interrupts_lib.o)
 .debug_ranges  0x00000158       0x50 /home/gombe/workspace/machikania/origdev/pic32/compiler/pic32-tools/bin/../lib/gcc/pic32mx/4.5.2/../../../../pic32mx/lib/libmchp_peripheral_32MX250F128B.a(int_tbl_lib.o)

.gnu.attributes
                0x00000000       0x10
 *(.gnu.attributes)
 .gnu.attributes
                0x00000000       0x10 obj/xprintf.o
 .gnu.attributes
                0x00000010       0x10 obj/ff.o
 .gnu.attributes
                0x00000020       0x10 obj/mmc_xmega.o
 .gnu.attributes
                0x00000030       0x10 obj/matrix4.o
 .gnu.attributes
                0x00000040       0x10 obj/triangle.o
 .gnu.attributes
                0x00000050       0x10 obj/vector2.o
 .gnu.attributes
                0x00000060       0x10 obj/newmain.o
 .gnu.attributes
                0x00000070       0x10 obj/graphiclib.o
 .gnu.attributes
                0x00000080       0x10 obj/vector3.o
 .gnu.attributes
                0x00000090       0x10 obj/graphicdraw.o
 .gnu.attributes
                0x000000a0       0x10 obj/maze.o
 .gnu.attributes
                0x000000b0       0x10 obj/composite32-high4.o
 .gnu.attributes
                0x000000c0       0x10 ../../pic32/compiler/pic32-tools/bin/../lib/gcc/pic32mx/4.5.2/crtend.o
 .gnu.attributes
                0x000000d0       0x10 ../../pic32/compiler/pic32-tools/bin/../lib/gcc/pic32mx/4.5.2/crtbegin.o
 .gnu.attributes
                0x000000e0       0x10 /home/gombe/workspace/machikania/origdev/pic32/compiler/pic32-tools/bin/../lib/gcc/pic32mx/4.5.2/../../../../pic32mx/lib/libm.a(lib_a-s_cos.o)
 .gnu.attributes
                0x000000f0       0x10 /home/gombe/workspace/machikania/origdev/pic32/compiler/pic32-tools/bin/../lib/gcc/pic32mx/4.5.2/../../../../pic32mx/lib/libm.a(lib_a-sf_cos.o)
 .gnu.attributes
                0x00000100       0x10 /home/gombe/workspace/machikania/origdev/pic32/compiler/pic32-tools/bin/../lib/gcc/pic32mx/4.5.2/../../../../pic32mx/lib/libm.a(lib_a-sf_sin.o)
 .gnu.attributes
                0x00000110       0x10 /home/gombe/workspace/machikania/origdev/pic32/compiler/pic32-tools/bin/../lib/gcc/pic32mx/4.5.2/../../../../pic32mx/lib/libm.a(lib_a-s_sin.o)
 .gnu.attributes
                0x00000120       0x10 /home/gombe/workspace/machikania/origdev/pic32/compiler/pic32-tools/bin/../lib/gcc/pic32mx/4.5.2/../../../../pic32mx/lib/libm.a(lib_a-s_tan.o)
 .gnu.attributes
                0x00000130       0x10 /home/gombe/workspace/machikania/origdev/pic32/compiler/pic32-tools/bin/../lib/gcc/pic32mx/4.5.2/../../../../pic32mx/lib/libm.a(lib_a-ef_rem_pio2.o)
 .gnu.attributes
                0x00000140       0x10 /home/gombe/workspace/machikania/origdev/pic32/compiler/pic32-tools/bin/../lib/gcc/pic32mx/4.5.2/../../../../pic32mx/lib/libm.a(lib_a-e_rem_pio2.o)
 .gnu.attributes
                0x00000150       0x10 /home/gombe/workspace/machikania/origdev/pic32/compiler/pic32-tools/bin/../lib/gcc/pic32mx/4.5.2/../../../../pic32mx/lib/libm.a(lib_a-k_cos.o)
 .gnu.attributes
                0x00000160       0x10 /home/gombe/workspace/machikania/origdev/pic32/compiler/pic32-tools/bin/../lib/gcc/pic32mx/4.5.2/../../../../pic32mx/lib/libm.a(lib_a-kf_cos.o)
 .gnu.attributes
                0x00000170       0x10 /home/gombe/workspace/machikania/origdev/pic32/compiler/pic32-tools/bin/../lib/gcc/pic32mx/4.5.2/../../../../pic32mx/lib/libm.a(lib_a-kf_rem_pio2.o)
 .gnu.attributes
                0x00000180       0x10 /home/gombe/workspace/machikania/origdev/pic32/compiler/pic32-tools/bin/../lib/gcc/pic32mx/4.5.2/../../../../pic32mx/lib/libm.a(lib_a-kf_sin.o)
 .gnu.attributes
                0x00000190       0x10 /home/gombe/workspace/machikania/origdev/pic32/compiler/pic32-tools/bin/../lib/gcc/pic32mx/4.5.2/../../../../pic32mx/lib/libm.a(lib_a-k_rem_pio2.o)
 .gnu.attributes
                0x000001a0       0x10 /home/gombe/workspace/machikania/origdev/pic32/compiler/pic32-tools/bin/../lib/gcc/pic32mx/4.5.2/../../../../pic32mx/lib/libm.a(lib_a-k_sin.o)
 .gnu.attributes
                0x000001b0       0x10 /home/gombe/workspace/machikania/origdev/pic32/compiler/pic32-tools/bin/../lib/gcc/pic32mx/4.5.2/../../../../pic32mx/lib/libm.a(lib_a-k_tan.o)
 .gnu.attributes
                0x000001c0       0x10 /home/gombe/workspace/machikania/origdev/pic32/compiler/pic32-tools/bin/../lib/gcc/pic32mx/4.5.2/../../../../pic32mx/lib/libm.a(lib_a-s_fabs.o)
 .gnu.attributes
                0x000001d0       0x10 /home/gombe/workspace/machikania/origdev/pic32/compiler/pic32-tools/bin/../lib/gcc/pic32mx/4.5.2/../../../../pic32mx/lib/libm.a(lib_a-sf_fabs.o)
 .gnu.attributes
                0x000001e0       0x10 /home/gombe/workspace/machikania/origdev/pic32/compiler/pic32-tools/bin/../lib/gcc/pic32mx/4.5.2/../../../../pic32mx/lib/libm.a(lib_a-sf_floor.o)
 .gnu.attributes
                0x000001f0       0x10 /home/gombe/workspace/machikania/origdev/pic32/compiler/pic32-tools/bin/../lib/gcc/pic32mx/4.5.2/../../../../pic32mx/lib/libm.a(lib_a-s_floor.o)
 .gnu.attributes
                0x00000200       0x10 /home/gombe/workspace/machikania/origdev/pic32/compiler/pic32-tools/bin/../lib/gcc/pic32mx/4.5.2/../../../../pic32mx/lib/libm.a(lib_a-sf_scalbn.o)
 .gnu.attributes
                0x00000210       0x10 /home/gombe/workspace/machikania/origdev/pic32/compiler/pic32-tools/bin/../lib/gcc/pic32mx/4.5.2/../../../../pic32mx/lib/libm.a(lib_a-s_scalbn.o)
 .gnu.attributes
                0x00000220       0x10 /home/gombe/workspace/machikania/origdev/pic32/compiler/pic32-tools/bin/../lib/gcc/pic32mx/4.5.2/../../../../pic32mx/lib/libm.a(lib_a-s_copysign.o)
 .gnu.attributes
                0x00000230       0x10 /home/gombe/workspace/machikania/origdev/pic32/compiler/pic32-tools/bin/../lib/gcc/pic32mx/4.5.2/../../../../pic32mx/lib/libm.a(lib_a-sf_copysign.o)
 .gnu.attributes
                0x00000240       0x10 /home/gombe/workspace/machikania/origdev/pic32/compiler/pic32-tools/bin/../lib/gcc/pic32mx/4.5.2/libgcc.a(_divdi3.o)
 .gnu.attributes
                0x00000250       0x10 /home/gombe/workspace/machikania/origdev/pic32/compiler/pic32-tools/bin/../lib/gcc/pic32mx/4.5.2/libgcc.a(addsf3.o)
 .gnu.attributes
                0x00000260       0x10 /home/gombe/workspace/machikania/origdev/pic32/compiler/pic32-tools/bin/../lib/gcc/pic32mx/4.5.2/libgcc.a(eqsf2.o)
 .gnu.attributes
                0x00000270       0x10 /home/gombe/workspace/machikania/origdev/pic32/compiler/pic32-tools/bin/../lib/gcc/pic32mx/4.5.2/libgcc.a(gesf2.o)
 .gnu.attributes
                0x00000280       0x10 /home/gombe/workspace/machikania/origdev/pic32/compiler/pic32-tools/bin/../lib/gcc/pic32mx/4.5.2/libgcc.a(mulsf3.o)
 .gnu.attributes
                0x00000290       0x10 /home/gombe/workspace/machikania/origdev/pic32/compiler/pic32-tools/bin/../lib/gcc/pic32mx/4.5.2/libgcc.a(subsf3.o)
 .gnu.attributes
                0x000002a0       0x10 /home/gombe/workspace/machikania/origdev/pic32/compiler/pic32-tools/bin/../lib/gcc/pic32mx/4.5.2/libgcc.a(fixsfsi.o)
 .gnu.attributes
                0x000002b0       0x10 /home/gombe/workspace/machikania/origdev/pic32/compiler/pic32-tools/bin/../lib/gcc/pic32mx/4.5.2/libgcc.a(floatsisf.o)
 .gnu.attributes
                0x000002c0       0x10 /home/gombe/workspace/machikania/origdev/pic32/compiler/pic32-tools/bin/../lib/gcc/pic32mx/4.5.2/libgcc.a(floatunsisf.o)
 .gnu.attributes
                0x000002d0       0x10 /home/gombe/workspace/machikania/origdev/pic32/compiler/pic32-tools/bin/../lib/gcc/pic32mx/4.5.2/libgcc.a(adddf3.o)
 .gnu.attributes
                0x000002e0       0x10 /home/gombe/workspace/machikania/origdev/pic32/compiler/pic32-tools/bin/../lib/gcc/pic32mx/4.5.2/libgcc.a(divdf3.o)
 .gnu.attributes
                0x000002f0       0x10 /home/gombe/workspace/machikania/origdev/pic32/compiler/pic32-tools/bin/../lib/gcc/pic32mx/4.5.2/libgcc.a(eqdf2.o)
 .gnu.attributes
                0x00000300       0x10 /home/gombe/workspace/machikania/origdev/pic32/compiler/pic32-tools/bin/../lib/gcc/pic32mx/4.5.2/libgcc.a(gedf2.o)
 .gnu.attributes
                0x00000310       0x10 /home/gombe/workspace/machikania/origdev/pic32/compiler/pic32-tools/bin/../lib/gcc/pic32mx/4.5.2/libgcc.a(muldf3.o)
 .gnu.attributes
                0x00000320       0x10 /home/gombe/workspace/machikania/origdev/pic32/compiler/pic32-tools/bin/../lib/gcc/pic32mx/4.5.2/libgcc.a(subdf3.o)
 .gnu.attributes
                0x00000330       0x10 /home/gombe/workspace/machikania/origdev/pic32/compiler/pic32-tools/bin/../lib/gcc/pic32mx/4.5.2/libgcc.a(fixdfsi.o)
 .gnu.attributes
                0x00000340       0x10 /home/gombe/workspace/machikania/origdev/pic32/compiler/pic32-tools/bin/../lib/gcc/pic32mx/4.5.2/libgcc.a(floatsidf.o)
 .gnu.attributes
                0x00000350       0x10 /home/gombe/workspace/machikania/origdev/pic32/compiler/pic32-tools/bin/../lib/gcc/pic32mx/4.5.2/libgcc.a(floatunsidf.o)
 .gnu.attributes
                0x00000360       0x10 /home/gombe/workspace/machikania/origdev/pic32/compiler/pic32-tools/bin/../lib/gcc/pic32mx/4.5.2/libgcc.a(extendsfdf2.o)
 .gnu.attributes
                0x00000370       0x10 /home/gombe/workspace/machikania/origdev/pic32/compiler/pic32-tools/bin/../lib/gcc/pic32mx/4.5.2/libgcc.a(truncdfsf2.o)
 .gnu.attributes
                0x00000380       0x10 /home/gombe/workspace/machikania/origdev/pic32/compiler/pic32-tools/bin/../lib/gcc/pic32mx/4.5.2/../../../../pic32mx/lib/libc.a(lib_a-assert.o)
 .gnu.attributes
                0x00000390       0x10 /home/gombe/workspace/machikania/origdev/pic32/compiler/pic32-tools/bin/../lib/gcc/pic32mx/4.5.2/../../../../pic32mx/lib/libc.a(lib_a-fiprintf.o)
 .gnu.attributes
                0x000003a0       0x10 /home/gombe/workspace/machikania/origdev/pic32/compiler/pic32-tools/bin/../lib/gcc/pic32mx/4.5.2/../../../../pic32mx/lib/libc.a(lib_a-impure.o)
 .gnu.attributes
                0x000003b0       0x10 /home/gombe/workspace/machikania/origdev/pic32/compiler/pic32-tools/bin/../lib/gcc/pic32mx/4.5.2/../../../../pic32mx/lib/libc.a(lib_a-printf.o)
 .gnu.attributes
                0x000003c0       0x10 /home/gombe/workspace/machikania/origdev/pic32/compiler/pic32-tools/bin/../lib/gcc/pic32mx/4.5.2/../../../../pic32mx/lib/libc.a(lib_a-vfiprintf.o)
 .gnu.attributes
                0x000003d0       0x10 /home/gombe/workspace/machikania/origdev/pic32/compiler/pic32-tools/bin/../lib/gcc/pic32mx/4.5.2/../../../../pic32mx/lib/libc.a(lib_a-vfprintf.o)
 .gnu.attributes
                0x000003e0       0x10 /home/gombe/workspace/machikania/origdev/pic32/compiler/pic32-tools/bin/../lib/gcc/pic32mx/4.5.2/../../../../pic32mx/lib/libc.a(lib_a-wsetup.o)
 .gnu.attributes
                0x000003f0       0x10 /home/gombe/workspace/machikania/origdev/pic32/compiler/pic32-tools/bin/../lib/gcc/pic32mx/4.5.2/../../../../pic32mx/lib/libc.a(lib_a-abort.o)
 .gnu.attributes
                0x00000400       0x10 /home/gombe/workspace/machikania/origdev/pic32/compiler/pic32-tools/bin/../lib/gcc/pic32mx/4.5.2/../../../../pic32mx/lib/libc.a(lib_a-dtoa.o)
 .gnu.attributes
                0x00000410       0x10 /home/gombe/workspace/machikania/origdev/pic32/compiler/pic32-tools/bin/../lib/gcc/pic32mx/4.5.2/../../../../pic32mx/lib/libc.a(lib_a-fflush.o)
 .gnu.attributes
                0x00000420       0x10 /home/gombe/workspace/machikania/origdev/pic32/compiler/pic32-tools/bin/../lib/gcc/pic32mx/4.5.2/../../../../pic32mx/lib/libc.a(lib_a-findfp.o)
 .gnu.attributes
                0x00000430       0x10 /home/gombe/workspace/machikania/origdev/pic32/compiler/pic32-tools/bin/../lib/gcc/pic32mx/4.5.2/../../../../pic32mx/lib/libc.a(lib_a-fputwc.o)
 .gnu.attributes
                0x00000440       0x10 /home/gombe/workspace/machikania/origdev/pic32/compiler/pic32-tools/bin/../lib/gcc/pic32mx/4.5.2/../../../../pic32mx/lib/libc.a(lib_a-freer.o)
 .gnu.attributes
                0x00000450       0x10 /home/gombe/workspace/machikania/origdev/pic32/compiler/pic32-tools/bin/../lib/gcc/pic32mx/4.5.2/../../../../pic32mx/lib/libc.a(lib_a-fvwrite.o)
 .gnu.attributes
                0x00000460       0x10 /home/gombe/workspace/machikania/origdev/pic32/compiler/pic32-tools/bin/../lib/gcc/pic32mx/4.5.2/../../../../pic32mx/lib/libc.a(lib_a-fwalk.o)
 .gnu.attributes
                0x00000470       0x10 /home/gombe/workspace/machikania/origdev/pic32/compiler/pic32-tools/bin/../lib/gcc/pic32mx/4.5.2/../../../../pic32mx/lib/libc.a(lib_a-locale.o)
 .gnu.attributes
                0x00000480       0x10 /home/gombe/workspace/machikania/origdev/pic32/compiler/pic32-tools/bin/../lib/gcc/pic32mx/4.5.2/../../../../pic32mx/lib/libc.a(lib_a-makebuf.o)
 .gnu.attributes
                0x00000490       0x10 /home/gombe/workspace/machikania/origdev/pic32/compiler/pic32-tools/bin/../lib/gcc/pic32mx/4.5.2/../../../../pic32mx/lib/libc.a(lib_a-mallocr.o)
 .gnu.attributes
                0x000004a0       0x10 /home/gombe/workspace/machikania/origdev/pic32/compiler/pic32-tools/bin/../lib/gcc/pic32mx/4.5.2/../../../../pic32mx/lib/libc.a(lib_a-memchr.o)
 .gnu.attributes
                0x000004b0       0x10 /home/gombe/workspace/machikania/origdev/pic32/compiler/pic32-tools/bin/../lib/gcc/pic32mx/4.5.2/../../../../pic32mx/lib/libc.a(lib_a-memcpy.o)
 .gnu.attributes
                0x000004c0       0x10 /home/gombe/workspace/machikania/origdev/pic32/compiler/pic32-tools/bin/../lib/gcc/pic32mx/4.5.2/../../../../pic32mx/lib/libc.a(lib_a-memmove.o)
 .gnu.attributes
                0x000004d0       0x10 /home/gombe/workspace/machikania/origdev/pic32/compiler/pic32-tools/bin/../lib/gcc/pic32mx/4.5.2/../../../../pic32mx/lib/libc.a(lib_a-memset.o)
 .gnu.attributes
                0x000004e0       0x10 /home/gombe/workspace/machikania/origdev/pic32/compiler/pic32-tools/bin/../lib/gcc/pic32mx/4.5.2/../../../../pic32mx/lib/libc.a(lib_a-mlock.o)
 .gnu.attributes
                0x000004f0       0x10 /home/gombe/workspace/machikania/origdev/pic32/compiler/pic32-tools/bin/../lib/gcc/pic32mx/4.5.2/../../../../pic32mx/lib/libc.a(lib_a-mprec.o)
 .gnu.attributes
                0x00000500       0x10 /home/gombe/workspace/machikania/origdev/pic32/compiler/pic32-tools/bin/../lib/gcc/pic32mx/4.5.2/../../../../pic32mx/lib/libc.a(lib_a-reallocr.o)
 .gnu.attributes
                0x00000510       0x10 /home/gombe/workspace/machikania/origdev/pic32/compiler/pic32-tools/bin/../lib/gcc/pic32mx/4.5.2/../../../../pic32mx/lib/libc.a(lib_a-sbrkr.o)
 .gnu.attributes
                0x00000520       0x10 /home/gombe/workspace/machikania/origdev/pic32/compiler/pic32-tools/bin/../lib/gcc/pic32mx/4.5.2/../../../../pic32mx/lib/libc.a(lib_a-s_fpclassify.o)
 .gnu.attributes
                0x00000530       0x10 /home/gombe/workspace/machikania/origdev/pic32/compiler/pic32-tools/bin/../lib/gcc/pic32mx/4.5.2/../../../../pic32mx/lib/libc.a(lib_a-signal.o)
 .gnu.attributes
                0x00000540       0x10 /home/gombe/workspace/machikania/origdev/pic32/compiler/pic32-tools/bin/../lib/gcc/pic32mx/4.5.2/../../../../pic32mx/lib/libc.a(lib_a-signalr.o)
 .gnu.attributes
                0x00000550       0x10 /home/gombe/workspace/machikania/origdev/pic32/compiler/pic32-tools/bin/../lib/gcc/pic32mx/4.5.2/../../../../pic32mx/lib/libc.a(lib_a-stdio.o)
 .gnu.attributes
                0x00000560       0x10 /home/gombe/workspace/machikania/origdev/pic32/compiler/pic32-tools/bin/../lib/gcc/pic32mx/4.5.2/../../../../pic32mx/lib/libc.a(lib_a-strcmp.o)
 .gnu.attributes
                0x00000570       0x10 /home/gombe/workspace/machikania/origdev/pic32/compiler/pic32-tools/bin/../lib/gcc/pic32mx/4.5.2/../../../../pic32mx/lib/libc.a(lib_a-strlen.o)
 .gnu.attributes
                0x00000580       0x10 /home/gombe/workspace/machikania/origdev/pic32/compiler/pic32-tools/bin/../lib/gcc/pic32mx/4.5.2/../../../../pic32mx/lib/libc.a(lib_a-wbuf.o)
 .gnu.attributes
                0x00000590       0x10 /home/gombe/workspace/machikania/origdev/pic32/compiler/pic32-tools/bin/../lib/gcc/pic32mx/4.5.2/../../../../pic32mx/lib/libc.a(lib_a-wcrtomb.o)
 .gnu.attributes
                0x000005a0       0x10 /home/gombe/workspace/machikania/origdev/pic32/compiler/pic32-tools/bin/../lib/gcc/pic32mx/4.5.2/../../../../pic32mx/lib/libc.a(lib_a-wctomb_r.o)
 .gnu.attributes
                0x000005b0       0x10 /home/gombe/workspace/machikania/origdev/pic32/compiler/pic32-tools/bin/../lib/gcc/pic32mx/4.5.2/../../../../pic32mx/lib/libc.a(lib_a-writer.o)
 .gnu.attributes
                0x000005c0       0x10 /home/gombe/workspace/machikania/origdev/pic32/compiler/pic32-tools/bin/../lib/gcc/pic32mx/4.5.2/../../../../pic32mx/lib/libc.a(lib_a-callocr.o)
 .gnu.attributes
                0x000005d0       0x10 /home/gombe/workspace/machikania/origdev/pic32/compiler/pic32-tools/bin/../lib/gcc/pic32mx/4.5.2/../../../../pic32mx/lib/libc.a(lib_a-closer.o)
 .gnu.attributes
                0x000005e0       0x10 /home/gombe/workspace/machikania/origdev/pic32/compiler/pic32-tools/bin/../lib/gcc/pic32mx/4.5.2/../../../../pic32mx/lib/libc.a(lib_a-fclose.o)
 .gnu.attributes
                0x000005f0       0x10 /home/gombe/workspace/machikania/origdev/pic32/compiler/pic32-tools/bin/../lib/gcc/pic32mx/4.5.2/../../../../pic32mx/lib/libc.a(lib_a-fstatr.o)
 .gnu.attributes
                0x00000600       0x10 /home/gombe/workspace/machikania/origdev/pic32/compiler/pic32-tools/bin/../lib/gcc/pic32mx/4.5.2/../../../../pic32mx/lib/libc.a(lib_a-isattyr.o)
 .gnu.attributes
                0x00000610       0x10 /home/gombe/workspace/machikania/origdev/pic32/compiler/pic32-tools/bin/../lib/gcc/pic32mx/4.5.2/../../../../pic32mx/lib/libc.a(lib_a-lseekr.o)
 .gnu.attributes
                0x00000620       0x10 /home/gombe/workspace/machikania/origdev/pic32/compiler/pic32-tools/bin/../lib/gcc/pic32mx/4.5.2/../../../../pic32mx/lib/libc.a(lib_a-readr.o)
 .gnu.attributes
                0x00000630       0x10 /home/gombe/workspace/machikania/origdev/pic32/compiler/pic32-tools/bin/../lib/gcc/pic32mx/4.5.2/../../../../pic32mx/lib/libc.a(lib_a-reent.o)
 .gnu.attributes
                0x00000640       0x10 /home/gombe/workspace/machikania/origdev/pic32/compiler/pic32-tools/bin/../lib/gcc/pic32mx/4.5.2/../../../../pic32mx/lib/libpic32.a(sbrk.o)
 .gnu.attributes
                0x00000650       0x10 /home/gombe/workspace/machikania/origdev/pic32/compiler/pic32-tools/bin/../lib/gcc/pic32mx/4.5.2/../../../../pic32mx/lib/libpic32.a(default-bootstrap-exception-handler.o)
 .gnu.attributes
                0x00000660       0x10 /home/gombe/workspace/machikania/origdev/pic32/compiler/pic32-tools/bin/../lib/gcc/pic32mx/4.5.2/../../../../pic32mx/lib/libpic32.a(default-on-reset.o)
 .gnu.attributes
                0x00000670       0x10 /home/gombe/workspace/machikania/origdev/pic32/compiler/pic32-tools/bin/../lib/gcc/pic32mx/4.5.2/../../../../pic32mx/lib/libpic32.a(default-on-bootstrap.o)
 .gnu.attributes
                0x00000680       0x10 /home/gombe/workspace/machikania/origdev/pic32/compiler/pic32-tools/bin/../lib/gcc/pic32mx/4.5.2/../../../../pic32mx/lib/libpic32.a(_exit.o)
 .gnu.attributes
                0x00000690       0x10 /home/gombe/workspace/machikania/origdev/pic32/compiler/pic32-tools/bin/../lib/gcc/pic32mx/4.5.2/../../../../pic32mx/lib/libpic32.a(isatty.o)
 .gnu.attributes
                0x000006a0       0x10 /home/gombe/workspace/machikania/origdev/pic32/compiler/pic32-tools/bin/../lib/gcc/pic32mx/4.5.2/../../../../pic32mx/lib/libpic32.a(read.o)
 .gnu.attributes
                0x000006b0       0x10 /home/gombe/workspace/machikania/origdev/pic32/compiler/pic32-tools/bin/../lib/gcc/pic32mx/4.5.2/../../../../pic32mx/lib/libpic32.a(write.o)
 .gnu.attributes
                0x000006c0       0x10 /home/gombe/workspace/machikania/origdev/pic32/compiler/pic32-tools/bin/../lib/gcc/pic32mx/4.5.2/../../../../pic32mx/lib/libpic32.a(lseek.o)
 .gnu.attributes
                0x000006d0       0x10 /home/gombe/workspace/machikania/origdev/pic32/compiler/pic32-tools/bin/../lib/gcc/pic32mx/4.5.2/../../../../pic32mx/lib/libpic32.a(close.o)
 .gnu.attributes
                0x000006e0       0x10 /home/gombe/workspace/machikania/origdev/pic32/compiler/pic32-tools/bin/../lib/gcc/pic32mx/4.5.2/../../../../pic32mx/lib/libpic32.a(fstat.o)
 .gnu.attributes
                0x000006f0       0x10 /home/gombe/workspace/machikania/origdev/pic32/compiler/pic32-tools/bin/../lib/gcc/pic32mx/4.5.2/../../../../pic32mx/lib/libpic32.a(kill.o)
 .gnu.attributes
                0x00000700       0x10 /home/gombe/workspace/machikania/origdev/pic32/compiler/pic32-tools/bin/../lib/gcc/pic32mx/4.5.2/../../../../pic32mx/lib/libpic32.a(getpid.o)
 .gnu.attributes
                0x00000710       0x10 /home/gombe/workspace/machikania/origdev/pic32/compiler/pic32-tools/bin/../lib/gcc/pic32mx/4.5.2/../../../../pic32mx/lib/libpic32.a(xc32_uart.o)
 .gnu.attributes
                0x00000720       0x10 /home/gombe/workspace/machikania/origdev/pic32/compiler/pic32-tools/bin/../lib/gcc/pic32mx/4.5.2/../../../../pic32mx/lib/libpic32.a(_mon_putc.o)
 .gnu.attributes
                0x00000730       0x10 /home/gombe/workspace/machikania/origdev/pic32/compiler/pic32-tools/bin/../lib/gcc/pic32mx/4.5.2/../../../../pic32mx/lib/libpic32.a(defaultinterrupt.o)
 .gnu.attributes
                0x00000740       0x10 /home/gombe/workspace/machikania/origdev/pic32/compiler/pic32-tools/bin/../lib/gcc/pic32mx/4.5.2/libgcc.a(_udivdi3.o)
 .gnu.attributes
                0x00000750       0x10 /home/gombe/workspace/machikania/origdev/pic32/compiler/pic32-tools/bin/../lib/gcc/pic32mx/4.5.2/libgcc.a(_umoddi3.o)
 .gnu.attributes
                0x00000760       0x10 /home/gombe/workspace/machikania/origdev/pic32/compiler/pic32-tools/bin/../lib/gcc/pic32mx/4.5.2/libgcc.a(ledf2.o)
 .gnu.attributes
                0x00000770       0x10 /home/gombe/workspace/machikania/origdev/pic32/compiler/pic32-tools/bin/../lib/gcc/pic32mx/4.5.2/../../../../pic32mx/lib/libmchp_peripheral_32MX250F128B.a(osc_config_lib.o)
 .gnu.attributes
                0x00000780       0x10 /home/gombe/workspace/machikania/origdev/pic32/compiler/pic32-tools/bin/../lib/gcc/pic32mx/4.5.2/../../../../pic32mx/lib/libmchp_peripheral_32MX250F128B.a(int_disable_interrupts_lib.o)
 .gnu.attributes
                0x00000790       0x10 /home/gombe/workspace/machikania/origdev/pic32/compiler/pic32-tools/bin/../lib/gcc/pic32mx/4.5.2/../../../../pic32mx/lib/libmchp_peripheral_32MX250F128B.a(int_restore_interrupts_lib.o)
 .gnu.attributes
                0x000007a0       0x10 /home/gombe/workspace/machikania/origdev/pic32/compiler/pic32-tools/bin/../lib/gcc/pic32mx/4.5.2/../../../../pic32mx/lib/libmchp_peripheral_32MX250F128B.a(int_enable_mv_int_lib.o)
 .gnu.attributes
                0x000007b0       0x10 /home/gombe/workspace/machikania/origdev/pic32/compiler/pic32-tools/bin/../lib/gcc/pic32mx/4.5.2/../../../../pic32mx/lib/libmchp_peripheral_32MX250F128B.a(spi_getc_spi2_lib_legacy.o)
 .gnu.attributes
                0x000007c0       0x10 /home/gombe/workspace/machikania/origdev/pic32/compiler/pic32-tools/bin/../lib/gcc/pic32mx/4.5.2/../../../../pic32mx/lib/libmchp_peripheral_32MX250F128B.a(spi_open_spi2_lib_legacy.o)
 .gnu.attributes
                0x000007d0       0x10 /home/gombe/workspace/machikania/origdev/pic32/compiler/pic32-tools/bin/../lib/gcc/pic32mx/4.5.2/../../../../pic32mx/lib/libmchp_peripheral_32MX250F128B.a(spi_brg_tbl_lib_legacy.o)
 .gnu.attributes
                0x000007e0       0x10 /home/gombe/workspace/machikania/origdev/pic32/compiler/pic32-tools/bin/../lib/gcc/pic32mx/4.5.2/../../../../pic32mx/lib/libmchp_peripheral_32MX250F128B.a(dma_chn_clr_ev_flags_lib.o)
 .gnu.attributes
                0x000007f0       0x10 /home/gombe/workspace/machikania/origdev/pic32/compiler/pic32-tools/bin/../lib/gcc/pic32mx/4.5.2/../../../../pic32mx/lib/libmchp_peripheral_32MX250F128B.a(dma_chn_open_lib.o)
 .gnu.attributes
                0x00000800       0x10 /home/gombe/workspace/machikania/origdev/pic32/compiler/pic32-tools/bin/../lib/gcc/pic32mx/4.5.2/../../../../pic32mx/lib/libmchp_peripheral_32MX250F128B.a(dma_chn_enable_lib.o)
 .gnu.attributes
                0x00000810       0x10 /home/gombe/workspace/machikania/origdev/pic32/compiler/pic32-tools/bin/../lib/gcc/pic32mx/4.5.2/../../../../pic32mx/lib/libmchp_peripheral_32MX250F128B.a(dma_chn_get_ev_flags_lib.o)
 .gnu.attributes
                0x00000820       0x10 /home/gombe/workspace/machikania/origdev/pic32/compiler/pic32-tools/bin/../lib/gcc/pic32mx/4.5.2/../../../../pic32mx/lib/libmchp_peripheral_32MX250F128B.a(dma_chn_write_event_control_flags_lib.o)
 .gnu.attributes
                0x00000830       0x10 /home/gombe/workspace/machikania/origdev/pic32/compiler/pic32-tools/bin/../lib/gcc/pic32mx/4.5.2/../../../../pic32mx/lib/libmchp_peripheral_32MX250F128B.a(dma_chn_set_txfer_lib.o)
 .gnu.attributes
                0x00000840       0x10 /home/gombe/workspace/machikania/origdev/pic32/compiler/pic32-tools/bin/../lib/gcc/pic32mx/4.5.2/../../../../pic32mx/lib/libmchp_peripheral_32MX250F128B.a(dma_chn_start_txfer_lib.o)
 .gnu.attributes
                0x00000850       0x10 /home/gombe/workspace/machikania/origdev/pic32/compiler/pic32-tools/bin/../lib/gcc/pic32mx/4.5.2/../../../../pic32mx/lib/libmchp_peripheral_32MX250F128B.a(dma_reg_map_tbl_lib.o)
 .gnu.attributes
                0x00000860       0x10 /home/gombe/workspace/machikania/origdev/pic32/compiler/pic32-tools/bin/../lib/gcc/pic32mx/4.5.2/../../../../pic32mx/lib/libmchp_peripheral_32MX250F128B.a(int_enable_interrupts_lib.o)
 .gnu.attributes
                0x00000870       0x10 /home/gombe/workspace/machikania/origdev/pic32/compiler/pic32-tools/bin/../lib/gcc/pic32mx/4.5.2/../../../../pic32mx/lib/libmchp_peripheral_32MX250F128B.a(int_tbl_lib.o)
 .gnu.attributes
                0x00000880       0x10 /home/gombe/workspace/machikania/origdev/pic32/compiler/pic32-tools/bin/../lib/gcc/pic32mx/4.5.2/../../../../pic32mx/lib/libc.a(lib_a-errno.o)
LOAD /home/gombe/workspace/machikania/origdev/pic32/compiler/pic32-tools/bin/../lib/gcc/pic32mx/4.5.2/libgcc.a
START GROUP
LOAD /home/gombe/workspace/machikania/origdev/pic32/compiler/pic32-tools/bin/../lib/gcc/pic32mx/4.5.2/../../../../pic32mx/lib/libc.a
LOAD /home/gombe/workspace/machikania/origdev/pic32/compiler/pic32-tools/bin/../lib/gcc/pic32mx/4.5.2/../../../../pic32mx/lib/libsupc++.a
LOAD /home/gombe/workspace/machikania/origdev/pic32/compiler/pic32-tools/bin/../lib/gcc/pic32mx/4.5.2/../../../../pic32mx/lib/libpic32.a
LOAD /home/gombe/workspace/machikania/origdev/pic32/compiler/pic32-tools/bin/../lib/gcc/pic32mx/4.5.2/libgcc.a
LOAD /home/gombe/workspace/machikania/origdev/pic32/compiler/pic32-tools/bin/../lib/gcc/pic32mx/4.5.2/../../../../pic32mx/lib/libmchp_peripheral.a
LOAD /home/gombe/workspace/machikania/origdev/pic32/compiler/pic32-tools/bin/../lib/gcc/pic32mx/4.5.2/../../../../pic32mx/lib/libmchp_peripheral_32MX250F128B.a
END GROUP
LOAD /home/gombe/workspace/machikania/origdev/pic32/compiler/pic32-tools/bin/../lib/gcc/pic32mx/4.5.2/libgcc.a
LOAD /home/gombe/workspace/machikania/origdev/pic32/compiler/pic32-tools/bin/../lib/gcc/pic32mx/4.5.2/../../../../pic32mx/lib/debug-exception-return.o
OUTPUT(bin/EXAMPLE1.elf elf32-tradlittlemips)
LOAD stack
LOAD data_init

.reginfo        0x00000000       0x18
 .reginfo       0x00000000       0x18 obj/xprintf.o

.stack          0xa000ca18      0x400
 .stack         0xa000ca18      0x400 stack

.bss            0xa00000dc     0xbe44
 .bss           0xa00000dc     0x7100 obj/composite32-high4.o
                0xa00000dc                VRAM
                0xa00070dc                ClTable
 .bss           0xa00071dc     0x41fc obj/newmain.o
                0xa00071dc                pointvec
                0xa0008dfc                polyvec
                0xa0009c0c                map
 .bss           0xa000b3d8      0xb48 obj/maze.o
                0xa000b3d8                candidi

.data.impure_data.impure_data
                0xa000bf20      0x418
 .data.impure_data.impure_data
                0xa000bf20      0x418 /home/gombe/workspace/machikania/origdev/pic32/compiler/pic32-tools/bin/../lib/gcc/pic32mx/4.5.2/../../../../pic32mx/lib/libc.a(lib_a-impure.o)

.data.__malloc_av_.__malloc_av_
                0xa000c338      0x408
 .data.__malloc_av_.__malloc_av_
                0xa000c338      0x408 /home/gombe/workspace/machikania/origdev/pic32/compiler/pic32-tools/bin/../lib/gcc/pic32mx/4.5.2/../../../../pic32mx/lib/libc.a(lib_a-mallocr.o)
                0xa000c338                __malloc_av_

.data.lconv.lconv
                0xa000c740       0x38
 .data.lconv.lconv
                0xa000c740       0x38 /home/gombe/workspace/machikania/origdev/pic32/compiler/pic32-tools/bin/../lib/gcc/pic32mx/4.5.2/../../../../pic32mx/lib/libc.a(lib_a-locale.o)

.bss.__malloc_current_mallinfo.__malloc_current_mallinfo
                0xa000c778       0x28
 .bss.__malloc_current_mallinfo.__malloc_current_mallinfo
                0xa000c778       0x28 /home/gombe/workspace/machikania/origdev/pic32/compiler/pic32-tools/bin/../lib/gcc/pic32mx/4.5.2/../../../../pic32mx/lib/libc.a(lib_a-mallocr.o)
                0xa000c778                __malloc_current_mallinfo

.bss            0xa000c7a0       0x20
 .bss           0xa000c7a0       0x20 ../../pic32/compiler/pic32-tools/bin/../lib/gcc/pic32mx/4.5.2/crtbegin.o

.data.lc_ctype_charset.lc_ctype_charset
                0xa000c7c0       0x20
 .data.lc_ctype_charset.lc_ctype_charset
                0xa000c7c0       0x20 /home/gombe/workspace/machikania/origdev/pic32/compiler/pic32-tools/bin/../lib/gcc/pic32mx/4.5.2/../../../../pic32mx/lib/libc.a(lib_a-locale.o)

.bss.mem.1180.mem
                0xa000c7e0       0x18
 .bss.mem.1180.mem
                0xa000c7e0       0x18 /home/gombe/workspace/machikania/origdev/pic32/compiler/pic32-tools/bin/../lib/gcc/pic32mx/4.5.2/../../../../pic32mx/lib/libpic32.a(sbrk.o)

.bss.curbrk.curbrk
                0xa000c7f8        0x4
 .bss.curbrk.curbrk
                0xa000c7f8        0x4 /home/gombe/workspace/machikania/origdev/pic32/compiler/pic32-tools/bin/../lib/gcc/pic32mx/4.5.2/../../../../pic32mx/lib/libpic32.a(sbrk.o)

._debug_exception
                0xbfc00480       0x24
 ._debug_exception
                0xbfc00480       0x24 /home/gombe/workspace/machikania/origdev/pic32/compiler/pic32-tools/bin/../lib/gcc/pic32mx/4.5.2/../../../../pic32mx/lib/debug-exception-return.o
                0xbfc00480                __DbgExecReturn

.text           0x9d0074e4     0x6ecc
 .text          0x9d0074e4     0x3828 obj/composite32-high4.o
                0x9d0074e4                T2Handler
                0x9d007664                OC3Handler
                0x9d007748                OC1Handler
                0x9d00788c                OC2Handler
                0x9d007f20                video::clearscreen()
                0x9d007f44                video::set_palette(unsigned char, unsigned char, unsigned char, unsigned char)
                0x9d00824c                video::start_composite()
                0x9d008280                video::stop_composite()
                0x9d008294                video::init_composite()
                0x9d008508                video::pset(int, int, unsigned int)
                0x9d00857c                video::putbmpmn(int, int, char, char, unsigned char const*)
                0x9d008834                video::clrbmpmn(int, int, char, char)
                0x9d008a28                video::gline(int, int, int, int, unsigned int)
                0x9d008be8                video::hline(int, int, int, unsigned int)
                0x9d008e18                video::circle(int, int, unsigned int, unsigned int)
                0x9d009140                video::boxfill(int, int, int, int, unsigned int)
                0x9d009414                video::circlefill(int, int, unsigned int, unsigned int)
                0x9d009c48                video::putfont(int, int, unsigned int, int, unsigned char)
                0x9d00a97c                video::printstr(int, int, unsigned int, int, unsigned char*)
                0x9d00a9fc                video::printnum(int, int, unsigned char, int, unsigned int)
                0x9d00ab80                video::printnum2(int, int, unsigned char, int, unsigned int, unsigned char)
                0x9d00acb4                video::color(int, int)
 .text          0x9d00ad0c     0x36a4 obj/newmain.o
                0x9d00ad0c                init()
                0x9d00aed0                main_3d()
                0x9d00e180                main

.rodata         0x9d00e3b0     0x1c28
 .rodata        0x9d00e3b0     0x1c28 obj/graphicdraw.o

.text._vfprintf_r
                0x9d00ffd8     0x1b10
 .text._vfprintf_r
                0x9d00ffd8     0x1b10 /home/gombe/workspace/machikania/origdev/pic32/compiler/pic32-tools/bin/../lib/gcc/pic32mx/4.5.2/../../../../pic32mx/lib/libc.a(lib_a-vfprintf.o)
                0x9d00ffd8                _vfprintf_r

.text           0x9d011ae8     0x1590
 .text          0x9d011ae8     0x1590 obj/maze.o
                0x9d011ae8                myRand(int)
                0x9d011b68                map::printmap(graphiclib&)
                0x9d011d90                map::dig(vector2&, graphiclib&)
                0x9d011ff0                map::calcstart(vector2_t*)
                0x9d012418                map::initmap()
                0x9d012468                map::mazemake(int, vector2 const&, graphiclib&)
                0x9d0129c4                map::genepoints(vector3_t*, vector3 const&)
                0x9d012ce0                map::genepoly(int (*) [3], vector3 const&)

.text._dtoa_r   0x9d013078     0x1350
 .text._dtoa_r  0x9d013078     0x1350 /home/gombe/workspace/machikania/origdev/pic32/compiler/pic32-tools/bin/../lib/gcc/pic32mx/4.5.2/../../../../pic32mx/lib/libc.a(lib_a-dtoa.o)
                0x9d013078                _dtoa_r

.text           0x9d0143c8     0x10c4
 .text          0x9d0143c8     0x10c4 obj/graphicdraw.o
                0x9d0143c8                graphiclib::screenclear()
                0x9d0143d0                graphiclib::setPoint(vector2)
                0x9d0143d8                graphiclib::fillcircle(vector2 const&, int)
                0x9d01452c                graphiclib::circle(vector2 const&, int)
                0x9d014850                graphiclib::calc_seq_code(vector2)
                0x9d014890                graphiclib::calc_intsec_x(vector2, vector2, int, vector2&)
                0x9d0148f8                graphiclib::calc_intsec_y(vector2, vector2, int, vector2&)
                0x9d014960                graphiclib::calc_clipped_point(int, vector2, vector2, vector2&)
                0x9d014bbc                graphiclib::clipping(vector2&, vector2&)
                0x9d014d30                graphiclib::Line(vector2, vector2)
                0x9d015010                graphiclib::Line(vector3 const&, vector3 const&)
                0x9d015098                graphiclib::textSize(int)
                0x9d015144                graphiclib::get_font(char)
                0x9d015180                graphiclib::drawFont(vector2 const&, char)
                0x9d0153bc                graphiclib::print_string(char const*)

.text._vfiprintf_r
                0x9d01548c      0xde4
 .text._vfiprintf_r
                0x9d01548c      0xde4 /home/gombe/workspace/machikania/origdev/pic32/compiler/pic32-tools/bin/../lib/gcc/pic32mx/4.5.2/../../../../pic32mx/lib/libc.a(lib_a-vfiprintf.o)
                0x9d01548c                _vfiprintf_r

.text           0x9d016270      0xdd8
 .text          0x9d016270      0xdd8 obj/matrix4.o
                0x9d016270                loadPerspective(int, int, int, int, int, int)
                0x9d01648c                lookat(vector3, vector3)
                0x9d016bd4                rotatex(unsigned short)
                0x9d016cf4                rotatey(unsigned short)
                0x9d016e14                rotatez(unsigned short)
                0x9d016f54                translation(vector3)
                0x9d016fac                magnify(int)
                0x9d016ffc                magnify_y(int)

.text.__kernel_rem_pio2
                0x9d017048      0xc50
 .text.__kernel_rem_pio2
                0x9d017048      0xc50 /home/gombe/workspace/machikania/origdev/pic32/compiler/pic32-tools/bin/../lib/gcc/pic32mx/4.5.2/../../../../pic32mx/lib/libm.a(lib_a-k_rem_pio2.o)
                0x9d017048                __kernel_rem_pio2

.dinit          0x9d017c98      0xb00
 .dinit         0x9d017c98      0xb00 data_init

.text.__kernel_rem_pio2f
                0x9d018798      0xa30
 .text.__kernel_rem_pio2f
                0x9d018798      0xa30 /home/gombe/workspace/machikania/origdev/pic32/compiler/pic32-tools/bin/../lib/gcc/pic32mx/4.5.2/../../../../pic32mx/lib/libm.a(lib_a-kf_rem_pio2.o)
                0x9d018798                __kernel_rem_pio2f

.text           0x9d0191c8      0x96c
 .text          0x9d0191c8      0x96c obj/triangle.o
                0x9d0191c8                triangle::draw(int*, graphiclib&)
                0x9d01950c                triangle::triangle_set(vector3*, unsigned char)
                0x9d019b24                triangle::cymin()
                0x9d019b2c                triangle::cymax()

.rodata         0x9d019b34      0x800
 .rodata        0x9d019b34      0x800 obj/composite32-high4.o

.text           0x9d01a334      0xf90
 .text          0x9d01a334      0x7d4 /home/gombe/workspace/machikania/origdev/pic32/compiler/pic32-tools/bin/../lib/gcc/pic32mx/4.5.2/libgcc.a(subdf3.o)
                0x9d01a334                __subdf3
 .text          0x9d01ab08      0x7bc /home/gombe/workspace/machikania/origdev/pic32/compiler/pic32-tools/bin/../lib/gcc/pic32mx/4.5.2/libgcc.a(adddf3.o)
                0x9d01ab08                __adddf3

.text.__ieee754_rem_pio2
                0x9d01b2c4      0x6f4
 .text.__ieee754_rem_pio2
                0x9d01b2c4      0x6f4 /home/gombe/workspace/machikania/origdev/pic32/compiler/pic32-tools/bin/../lib/gcc/pic32mx/4.5.2/../../../../pic32mx/lib/libm.a(lib_a-e_rem_pio2.o)
                0x9d01b2c4                __ieee754_rem_pio2

.text.__kernel_tan
                0x9d01b9b8      0x688
 .text.__kernel_tan
                0x9d01b9b8      0x688 /home/gombe/workspace/machikania/origdev/pic32/compiler/pic32-tools/bin/../lib/gcc/pic32mx/4.5.2/../../../../pic32mx/lib/libm.a(lib_a-k_tan.o)
                0x9d01b9b8                __kernel_tan

.text           0x9d01c040      0x684
 .text          0x9d01c040      0x684 /home/gombe/workspace/machikania/origdev/pic32/compiler/pic32-tools/bin/../lib/gcc/pic32mx/4.5.2/libgcc.a(divdf3.o)
                0x9d01c040                __divdf3

.text._malloc_r
                0x9d01c6c4      0x664
 .text._malloc_r
                0x9d01c6c4      0x664 /home/gombe/workspace/machikania/origdev/pic32/compiler/pic32-tools/bin/../lib/gcc/pic32mx/4.5.2/../../../../pic32mx/lib/libc.a(lib_a-mallocr.o)
                0x9d01c6c4                _malloc_r

.text._realloc_r
                0x9d01cd28      0x514
 .text._realloc_r
                0x9d01cd28      0x514 /home/gombe/workspace/machikania/origdev/pic32/compiler/pic32-tools/bin/../lib/gcc/pic32mx/4.5.2/../../../../pic32mx/lib/libc.a(lib_a-reallocr.o)
                0x9d01cd28                _realloc_r

.text.__ieee754_rem_pio2f
                0x9d01d23c      0x4e0
 .text.__ieee754_rem_pio2f
                0x9d01d23c      0x4e0 /home/gombe/workspace/machikania/origdev/pic32/compiler/pic32-tools/bin/../lib/gcc/pic32mx/4.5.2/../../../../pic32mx/lib/libm.a(lib_a-ef_rem_pio2.o)
                0x9d01d23c                __ieee754_rem_pio2f

.text.__sfvwrite_r
                0x9d01d71c      0x4d0
 .text.__sfvwrite_r
                0x9d01d71c      0x4d0 /home/gombe/workspace/machikania/origdev/pic32/compiler/pic32-tools/bin/../lib/gcc/pic32mx/4.5.2/../../../../pic32mx/lib/libc.a(lib_a-fvwrite.o)
                0x9d01d71c                __sfvwrite_r

.text           0x9d01dbec     0x1a4c
 .text          0x9d01dbec      0x494 /home/gombe/workspace/machikania/origdev/pic32/compiler/pic32-tools/bin/../lib/gcc/pic32mx/4.5.2/libgcc.a(subsf3.o)
                0x9d01dbec                __subsf3
 .text          0x9d01e080      0x48c /home/gombe/workspace/machikania/origdev/pic32/compiler/pic32-tools/bin/../lib/gcc/pic32mx/4.5.2/libgcc.a(_divdi3.o)
                0x9d01e080                __divdi3
 .text          0x9d01e50c      0x480 /home/gombe/workspace/machikania/origdev/pic32/compiler/pic32-tools/bin/../lib/gcc/pic32mx/4.5.2/libgcc.a(addsf3.o)
                0x9d01e50c                __addsf3
 .text          0x9d01e98c      0x478 /home/gombe/workspace/machikania/origdev/pic32/compiler/pic32-tools/bin/../lib/gcc/pic32mx/4.5.2/libgcc.a(muldf3.o)
                0x9d01e98c                __muldf3
 .text          0x9d01ee04      0x42c /home/gombe/workspace/machikania/origdev/pic32/compiler/pic32-tools/bin/../lib/gcc/pic32mx/4.5.2/libgcc.a(_udivdi3.o)
                0x9d01ee04                __udivdi3
 .text          0x9d01f230      0x408 /home/gombe/workspace/machikania/origdev/pic32/compiler/pic32-tools/bin/../lib/gcc/pic32mx/4.5.2/libgcc.a(_umoddi3.o)
                0x9d01f230                __umoddi3

.text.__kernel_cos
                0x9d01f638      0x35c
 .text.__kernel_cos
                0x9d01f638      0x35c /home/gombe/workspace/machikania/origdev/pic32/compiler/pic32-tools/bin/../lib/gcc/pic32mx/4.5.2/../../../../pic32mx/lib/libm.a(lib_a-k_cos.o)
                0x9d01f638                __kernel_cos

.rodata.two_over_pi.two_over_pi
                0x9d01f994      0x318
 .rodata.two_over_pi.two_over_pi
                0x9d01f994      0x318 /home/gombe/workspace/machikania/origdev/pic32/compiler/pic32-tools/bin/../lib/gcc/pic32mx/4.5.2/../../../../pic32mx/lib/libm.a(lib_a-ef_rem_pio2.o)

.text.__kernel_sin
                0x9d01fcac      0x2b0
 .text.__kernel_sin
                0x9d01fcac      0x2b0 /home/gombe/workspace/machikania/origdev/pic32/compiler/pic32-tools/bin/../lib/gcc/pic32mx/4.5.2/../../../../pic32mx/lib/libm.a(lib_a-k_sin.o)
                0x9d01fcac                __kernel_sin

.text           0x9d01ff5c      0x298
 .text          0x9d01ff5c      0x298 /home/gombe/workspace/machikania/origdev/pic32/compiler/pic32-tools/bin/../lib/gcc/pic32mx/4.5.2/libgcc.a(mulsf3.o)
                0x9d01ff5c                __mulsf3

.text._free_r   0x9d0201f4      0x270
 .text._free_r  0x9d0201f4      0x270 /home/gombe/workspace/machikania/origdev/pic32/compiler/pic32-tools/bin/../lib/gcc/pic32mx/4.5.2/../../../../pic32mx/lib/libc.a(lib_a-freer.o)
                0x9d0201f4                _free_r

.text._fflush_r
                0x9d020464      0x234
 .text._fflush_r
                0x9d020464      0x234 /home/gombe/workspace/machikania/origdev/pic32/compiler/pic32-tools/bin/../lib/gcc/pic32mx/4.5.2/../../../../pic32mx/lib/libc.a(lib_a-fflush.o)
                0x9d020464                _fflush_r

.text.__kernel_cosf
                0x9d020698      0x220
 .text.__kernel_cosf
                0x9d020698      0x220 /home/gombe/workspace/machikania/origdev/pic32/compiler/pic32-tools/bin/../lib/gcc/pic32mx/4.5.2/../../../../pic32mx/lib/libm.a(lib_a-kf_cos.o)
                0x9d020698                __kernel_cosf

.text.quorem    0x9d0208b8      0x204
 .text.quorem   0x9d0208b8      0x204 /home/gombe/workspace/machikania/origdev/pic32/compiler/pic32-tools/bin/../lib/gcc/pic32mx/4.5.2/../../../../pic32mx/lib/libc.a(lib_a-dtoa.o)

.kseg0_program_mem
                0x9d020abc      0x200
 .kseg0_program_mem
                0x9d020abc      0x200 obj/crt0.o

.text.__multiply
                0x9d020cbc      0x1e4
 .text.__multiply
                0x9d020cbc      0x1e4 /home/gombe/workspace/machikania/origdev/pic32/compiler/pic32-tools/bin/../lib/gcc/pic32mx/4.5.2/../../../../pic32mx/lib/libc.a(lib_a-mprec.o)
                0x9d020cbc                __multiply

.text.__kernel_sinf
                0x9d020ea0      0x1c4
 .text.__kernel_sinf
                0x9d020ea0      0x1c4 /home/gombe/workspace/machikania/origdev/pic32/compiler/pic32-tools/bin/../lib/gcc/pic32mx/4.5.2/../../../../pic32mx/lib/libm.a(lib_a-kf_sin.o)
                0x9d020ea0                __kernel_sinf

.text.floor     0x9d021064      0x1c4
 .text.floor    0x9d021064      0x1c4 /home/gombe/workspace/machikania/origdev/pic32/compiler/pic32-tools/bin/../lib/gcc/pic32mx/4.5.2/../../../../pic32mx/lib/libm.a(lib_a-s_floor.o)
                0x9d021064                floor

.text           0x9d021228      0x1a8
 .text          0x9d021228      0x1a8 obj/vector2.o
                0x9d021228                vector2::vector2()
                0x9d021228                vector2::vector2()
                0x9d021234                vector2::vector2(int, int)
                0x9d021234                vector2::vector2(int, int)
                0x9d021240                vector2::vector2(vector2 const&)
                0x9d021240                vector2::vector2(vector2 const&)
                0x9d021254                vector2::operator=(vector2 const&)
                0x9d02126c                vector2::operator+()
                0x9d021284                vector2::operator-()
                0x9d0212a4                vector2::operator+=(vector2 const&)
                0x9d0212cc                vector2::operator-=(vector2 const&)
                0x9d0212f4                operator+(vector2 const&, vector2 const&)
                0x9d021324                operator*(vector2 const&, int)
                0x9d02134c                operator-(vector2 const&, vector2 const&)
                0x9d02137c                vector2::operator*=(int)
                0x9d0213bc                vector2::print()

.text.__sinit   0x9d0213d0      0x194
 .text.__sinit  0x9d0213d0      0x194 /home/gombe/workspace/machikania/origdev/pic32/compiler/pic32-tools/bin/../lib/gcc/pic32mx/4.5.2/../../../../pic32mx/lib/libc.a(lib_a-findfp.o)
                0x9d0213d0                __sinit

.text._sbrk_init
                0x9d021564      0x194
 .text._sbrk_init
                0x9d021564      0x194 /home/gombe/workspace/machikania/origdev/pic32/compiler/pic32-tools/bin/../lib/gcc/pic32mx/4.5.2/../../../../pic32mx/lib/libpic32.a(sbrk.o)
                0x9d021564                _sbrk_init

.text._fputwc_r
                0x9d0216f8      0x184
 .text._fputwc_r
                0x9d0216f8      0x184 /home/gombe/workspace/machikania/origdev/pic32/compiler/pic32-tools/bin/../lib/gcc/pic32mx/4.5.2/../../../../pic32mx/lib/libc.a(lib_a-fputwc.o)
                0x9d0216f8                _fputwc_r

.text.__mdiff   0x9d02187c      0x180
 .text.__mdiff  0x9d02187c      0x180 /home/gombe/workspace/machikania/origdev/pic32/compiler/pic32-tools/bin/../lib/gcc/pic32mx/4.5.2/../../../../pic32mx/lib/libc.a(lib_a-mprec.o)
                0x9d02187c                __mdiff

.text           0x9d0219fc      0x178
 .text          0x9d0219fc      0x178 /home/gombe/workspace/machikania/origdev/pic32/compiler/pic32-tools/bin/../lib/gcc/pic32mx/4.5.2/libgcc.a(truncdfsf2.o)
                0x9d0219fc                __truncdfsf2

.text.__smakebuf_r
                0x9d021b74      0x174
 .text.__smakebuf_r
                0x9d021b74      0x174 /home/gombe/workspace/machikania/origdev/pic32/compiler/pic32-tools/bin/../lib/gcc/pic32mx/4.5.2/../../../../pic32mx/lib/libc.a(lib_a-makebuf.o)
                0x9d021b74                __smakebuf_r

.text.read      0x9d021ce8      0x174
 .text.read     0x9d021ce8      0x174 /home/gombe/workspace/machikania/origdev/pic32/compiler/pic32-tools/bin/../lib/gcc/pic32mx/4.5.2/../../../../pic32mx/lib/libpic32.a(read.o)
                0x9d021ce8                read

.text.scalbn    0x9d021e5c      0x168
 .text.scalbn   0x9d021e5c      0x168 /home/gombe/workspace/machikania/origdev/pic32/compiler/pic32-tools/bin/../lib/gcc/pic32mx/4.5.2/../../../../pic32mx/lib/libm.a(lib_a-s_scalbn.o)
                0x9d021e5c                scalbn

.text.OSCConfig
                0x9d021fc4      0x168
 .text.OSCConfig
                0x9d021fc4      0x168 /home/gombe/workspace/machikania/origdev/pic32/compiler/pic32-tools/bin/../lib/gcc/pic32mx/4.5.2/../../../../pic32mx/lib/libmchp_peripheral_32MX250F128B.a(osc_config_lib.o)
                0x9d021fc4                OSCConfig

.text.__swbuf_r
                0x9d02212c      0x164
 .text.__swbuf_r
                0x9d02212c      0x164 /home/gombe/workspace/machikania/origdev/pic32/compiler/pic32-tools/bin/../lib/gcc/pic32mx/4.5.2/../../../../pic32mx/lib/libc.a(lib_a-wbuf.o)
                0x9d02212c                __swbuf_r

.text.__d2b     0x9d022290      0x138
 .text.__d2b    0x9d022290      0x138 /home/gombe/workspace/machikania/origdev/pic32/compiler/pic32-tools/bin/../lib/gcc/pic32mx/4.5.2/../../../../pic32mx/lib/libc.a(lib_a-mprec.o)
                0x9d022290                __d2b

.text.__lshift  0x9d0223c8      0x130
 .text.__lshift
                0x9d0223c8      0x130 /home/gombe/workspace/machikania/origdev/pic32/compiler/pic32-tools/bin/../lib/gcc/pic32mx/4.5.2/../../../../pic32mx/lib/libc.a(lib_a-mprec.o)
                0x9d0223c8                __lshift

.text.scalbnf   0x9d0224f8      0x12c
 .text.scalbnf  0x9d0224f8      0x12c /home/gombe/workspace/machikania/origdev/pic32/compiler/pic32-tools/bin/../lib/gcc/pic32mx/4.5.2/../../../../pic32mx/lib/libm.a(lib_a-sf_scalbn.o)
                0x9d0224f8                scalbnf

.text.__swsetup_r
                0x9d022624      0x128
 .text.__swsetup_r
                0x9d022624      0x128 /home/gombe/workspace/machikania/origdev/pic32/compiler/pic32-tools/bin/../lib/gcc/pic32mx/4.5.2/../../../../pic32mx/lib/libc.a(lib_a-wsetup.o)
                0x9d022624                __swsetup_r

.text._malloc_trim_r
                0x9d02274c      0x11c
 .text._malloc_trim_r
                0x9d02274c      0x11c /home/gombe/workspace/machikania/origdev/pic32/compiler/pic32-tools/bin/../lib/gcc/pic32mx/4.5.2/../../../../pic32mx/lib/libc.a(lib_a-freer.o)
                0x9d02274c                _malloc_trim_r

.text           0x9d022868      0x21c
 .text          0x9d022868      0x110 ../../pic32/compiler/pic32-tools/bin/../lib/gcc/pic32mx/4.5.2/crtbegin.o
 .text          0x9d022978      0x10c /home/gombe/workspace/machikania/origdev/pic32/compiler/pic32-tools/bin/../lib/gcc/pic32mx/4.5.2/libgcc.a(gedf2.o)
                0x9d022978                __gtdf2
                0x9d022978                __gedf2

.text.__pow5mult
                0x9d022a84      0x10c
 .text.__pow5mult
                0x9d022a84      0x10c /home/gombe/workspace/machikania/origdev/pic32/compiler/pic32-tools/bin/../lib/gcc/pic32mx/4.5.2/../../../../pic32mx/lib/libc.a(lib_a-mprec.o)
                0x9d022a84                __pow5mult

.text           0x9d022b90      0x10c
 .text          0x9d022b90      0x10c /home/gombe/workspace/machikania/origdev/pic32/compiler/pic32-tools/bin/../lib/gcc/pic32mx/4.5.2/libgcc.a(ledf2.o)
                0x9d022b90                __ltdf2
                0x9d022b90                __ledf2

.rodata.two_over_pi.two_over_pi
                0x9d022c9c      0x108
 .rodata.two_over_pi.two_over_pi
                0x9d022c9c      0x108 /home/gombe/workspace/machikania/origdev/pic32/compiler/pic32-tools/bin/../lib/gcc/pic32mx/4.5.2/../../../../pic32mx/lib/libm.a(lib_a-e_rem_pio2.o)

.text.__multadd
                0x9d022da4      0x104
 .text.__multadd
                0x9d022da4      0x104 /home/gombe/workspace/machikania/origdev/pic32/compiler/pic32-tools/bin/../lib/gcc/pic32mx/4.5.2/../../../../pic32mx/lib/libc.a(lib_a-mprec.o)
                0x9d022da4                __multadd

.text.__sprint_r
                0x9d022ea8      0x100
 .text.__sprint_r
                0x9d022ea8      0x100 /home/gombe/workspace/machikania/origdev/pic32/compiler/pic32-tools/bin/../lib/gcc/pic32mx/4.5.2/../../../../pic32mx/lib/libc.a(lib_a-vfiprintf.o)
                0x9d022ea8                __sprint_r

.text           0x9d022fa8       0xf8
 .text          0x9d022fa8       0xf8 obj/vector3.o
                0x9d022fa8                vector3::abs()

.text.floorf    0x9d0230a0       0xf8
 .text.floorf   0x9d0230a0       0xf8 /home/gombe/workspace/machikania/origdev/pic32/compiler/pic32-tools/bin/../lib/gcc/pic32mx/4.5.2/../../../../pic32mx/lib/libm.a(lib_a-sf_floor.o)
                0x9d0230a0                floorf

.text           0x9d023198       0xf4
 .text          0x9d023198       0xf4 /home/gombe/workspace/machikania/origdev/pic32/compiler/pic32-tools/bin/../lib/gcc/pic32mx/4.5.2/libgcc.a(floatsisf.o)
                0x9d023198                __floatsisf

.text._fclose_r
                0x9d02328c       0xf4
 .text._fclose_r
                0x9d02328c       0xf4 /home/gombe/workspace/machikania/origdev/pic32/compiler/pic32-tools/bin/../lib/gcc/pic32mx/4.5.2/../../../../pic32mx/lib/libc.a(lib_a-fclose.o)
                0x9d02328c                _fclose_r

.text.sin       0x9d023380       0xec
 .text.sin      0x9d023380       0xec /home/gombe/workspace/machikania/origdev/pic32/compiler/pic32-tools/bin/../lib/gcc/pic32mx/4.5.2/../../../../pic32mx/lib/libm.a(lib_a-s_sin.o)
                0x9d023380                sin

.text.cos       0x9d02346c       0xe4
 .text.cos      0x9d02346c       0xe4 /home/gombe/workspace/machikania/origdev/pic32/compiler/pic32-tools/bin/../lib/gcc/pic32mx/4.5.2/../../../../pic32mx/lib/libm.a(lib_a-s_cos.o)
                0x9d02346c                cos

.text           0x9d023550      0x1b4
 .text          0x9d023550       0xe4 /home/gombe/workspace/machikania/origdev/pic32/compiler/pic32-tools/bin/../lib/gcc/pic32mx/4.5.2/libgcc.a(floatunsisf.o)
                0x9d023550                __floatunsisf
 .text          0x9d023634       0xd0 /home/gombe/workspace/machikania/origdev/pic32/compiler/pic32-tools/bin/../lib/gcc/pic32mx/4.5.2/libgcc.a(gesf2.o)
                0x9d023634                __gtsf2
                0x9d023634                __gesf2

.text._mon_putc
                0x9d023704       0xd0
 .text._mon_putc
                0x9d023704       0xd0 /home/gombe/workspace/machikania/origdev/pic32/compiler/pic32-tools/bin/../lib/gcc/pic32mx/4.5.2/../../../../pic32mx/lib/libpic32.a(_mon_putc.o)
                0x9d023704                _mon_putc

.text.sinf      0x9d0237d4       0xcc
 .text.sinf     0x9d0237d4       0xcc /home/gombe/workspace/machikania/origdev/pic32/compiler/pic32-tools/bin/../lib/gcc/pic32mx/4.5.2/../../../../pic32mx/lib/libm.a(lib_a-sf_sin.o)
                0x9d0237d4                sinf

.rodata.__mprec_tens.__mprec_tens
                0x9d0238a0       0xc8
 .rodata.__mprec_tens.__mprec_tens
                0x9d0238a0       0xc8 /home/gombe/workspace/machikania/origdev/pic32/compiler/pic32-tools/bin/../lib/gcc/pic32mx/4.5.2/../../../../pic32mx/lib/libc.a(lib_a-mprec.o)
                0x9d0238a0                __mprec_tens

.text.cosf      0x9d023968       0xc4
 .text.cosf     0x9d023968       0xc4 /home/gombe/workspace/machikania/origdev/pic32/compiler/pic32-tools/bin/../lib/gcc/pic32mx/4.5.2/../../../../pic32mx/lib/libm.a(lib_a-sf_cos.o)
                0x9d023968                cosf

.text._sbrk     0x9d023a2c       0xc4
 .text._sbrk    0x9d023a2c       0xc4 /home/gombe/workspace/machikania/origdev/pic32/compiler/pic32-tools/bin/../lib/gcc/pic32mx/4.5.2/../../../../pic32mx/lib/libpic32.a(sbrk.o)
                0x9d023a2c                _sbrk

.text           0x9d023af0       0xb8
 .text          0x9d023af0       0xb8 /home/gombe/workspace/machikania/origdev/pic32/compiler/pic32-tools/bin/../lib/gcc/pic32mx/4.5.2/libgcc.a(extendsfdf2.o)
                0x9d023af0                __extendsfdf2

.text.__lo0bits
                0x9d023ba8       0xb8
 .text.__lo0bits
                0x9d023ba8       0xb8 /home/gombe/workspace/machikania/origdev/pic32/compiler/pic32-tools/bin/../lib/gcc/pic32mx/4.5.2/../../../../pic32mx/lib/libc.a(lib_a-mprec.o)
                0x9d023ba8                __lo0bits

.text._raise_r  0x9d023c60       0xb4
 .text._raise_r
                0x9d023c60       0xb4 /home/gombe/workspace/machikania/origdev/pic32/compiler/pic32-tools/bin/../lib/gcc/pic32mx/4.5.2/../../../../pic32mx/lib/libc.a(lib_a-signal.o)
                0x9d023c60                _raise_r

.text._Balloc   0x9d023d14       0xac
 .text._Balloc  0x9d023d14       0xac /home/gombe/workspace/machikania/origdev/pic32/compiler/pic32-tools/bin/../lib/gcc/pic32mx/4.5.2/../../../../pic32mx/lib/libc.a(lib_a-mprec.o)
                0x9d023d14                _Balloc

.text._calloc_r
                0x9d023dc0       0xa4
 .text._calloc_r
                0x9d023dc0       0xa4 /home/gombe/workspace/machikania/origdev/pic32/compiler/pic32-tools/bin/../lib/gcc/pic32mx/4.5.2/../../../../pic32mx/lib/libc.a(lib_a-callocr.o)
                0x9d023dc0                _calloc_r

.text._fwalk    0x9d023e64       0x9c
 .text._fwalk   0x9d023e64       0x9c /home/gombe/workspace/machikania/origdev/pic32/compiler/pic32-tools/bin/../lib/gcc/pic32mx/4.5.2/../../../../pic32mx/lib/libc.a(lib_a-fwalk.o)
                0x9d023e64                _fwalk

.text._wcrtomb_r
                0x9d023f00       0x98
 .text._wcrtomb_r
                0x9d023f00       0x98 /home/gombe/workspace/machikania/origdev/pic32/compiler/pic32-tools/bin/../lib/gcc/pic32mx/4.5.2/../../../../pic32mx/lib/libc.a(lib_a-wcrtomb.o)
                0x9d023f00                _wcrtomb_r

.text.write     0x9d023f98       0x94
 .text.write    0x9d023f98       0x94 /home/gombe/workspace/machikania/origdev/pic32/compiler/pic32-tools/bin/../lib/gcc/pic32mx/4.5.2/../../../../pic32mx/lib/libpic32.a(write.o)
                0x9d023f98                write

.text.tan       0x9d02402c       0x90
 .text.tan      0x9d02402c       0x90 /home/gombe/workspace/machikania/origdev/pic32/compiler/pic32-tools/bin/../lib/gcc/pic32mx/4.5.2/../../../../pic32mx/lib/libm.a(lib_a-s_tan.o)
                0x9d02402c                tan

.rodata         0x9d0240c0       0x88
 .rodata        0x9d0240c0       0x88 /home/gombe/workspace/machikania/origdev/pic32/compiler/pic32-tools/bin/../lib/gcc/pic32mx/4.5.2/../../../../pic32mx/lib/libm.a(lib_a-k_tan.o)

.text.__fpclassifyd
                0x9d024148       0x84
 .text.__fpclassifyd
                0x9d024148       0x84 /home/gombe/workspace/machikania/origdev/pic32/compiler/pic32-tools/bin/../lib/gcc/pic32mx/4.5.2/../../../../pic32mx/lib/libc.a(lib_a-s_fpclassify.o)
                0x9d024148                __fpclassifyd

.rodata.npio2_hw.npio2_hw
                0x9d0241cc      0x100
 .rodata.npio2_hw.npio2_hw
                0x9d0241cc       0x80 /home/gombe/workspace/machikania/origdev/pic32/compiler/pic32-tools/bin/../lib/gcc/pic32mx/4.5.2/../../../../pic32mx/lib/libm.a(lib_a-ef_rem_pio2.o)
 .rodata.npio2_hw.npio2_hw
                0x9d02424c       0x80 /home/gombe/workspace/machikania/origdev/pic32/compiler/pic32-tools/bin/../lib/gcc/pic32mx/4.5.2/../../../../pic32mx/lib/libm.a(lib_a-e_rem_pio2.o)

.rodata         0x9d0242cc       0x7c
 .rodata        0x9d0242cc       0x7c obj/maze.o

.text.__swrite  0x9d024348       0x7c
 .text.__swrite
                0x9d024348       0x7c /home/gombe/workspace/machikania/origdev/pic32/compiler/pic32-tools/bin/../lib/gcc/pic32mx/4.5.2/../../../../pic32mx/lib/libc.a(lib_a-stdio.o)
                0x9d024348                __swrite

.text           0x9d0243c4      0x168
 .text          0x9d0243c4       0x78 /home/gombe/workspace/machikania/origdev/pic32/compiler/pic32-tools/bin/../lib/gcc/pic32mx/4.5.2/libgcc.a(eqdf2.o)
                0x9d0243c4                __eqdf2
                0x9d0243c4                __nedf2
 .text          0x9d02443c       0x78 /home/gombe/workspace/machikania/origdev/pic32/compiler/pic32-tools/bin/../lib/gcc/pic32mx/4.5.2/libgcc.a(fixdfsi.o)
                0x9d02443c                __fixdfsi
 .text          0x9d0244b4       0x78 /home/gombe/workspace/machikania/origdev/pic32/compiler/pic32-tools/bin/../lib/gcc/pic32mx/4.5.2/libgcc.a(floatsidf.o)
                0x9d0244b4                __floatsidf

.text.memmove   0x9d02452c       0x78
 .text.memmove  0x9d02452c       0x78 /home/gombe/workspace/machikania/origdev/pic32/compiler/pic32-tools/bin/../lib/gcc/pic32mx/4.5.2/../../../../pic32mx/lib/libc.a(lib_a-memmove.o)
                0x9d02452c                memmove

.text.__hi0bits
                0x9d0245a4       0x78
 .text.__hi0bits
                0x9d0245a4       0x78 /home/gombe/workspace/machikania/origdev/pic32/compiler/pic32-tools/bin/../lib/gcc/pic32mx/4.5.2/../../../../pic32mx/lib/libc.a(lib_a-mprec.o)
                0x9d0245a4                __hi0bits

.text           0x9d02461c      0x13c
 .text          0x9d02461c       0x6c /home/gombe/workspace/machikania/origdev/pic32/compiler/pic32-tools/bin/../lib/gcc/pic32mx/4.5.2/libgcc.a(floatunsidf.o)
                0x9d02461c                __floatunsidf
 .text          0x9d024688       0x68 /home/gombe/workspace/machikania/origdev/pic32/compiler/pic32-tools/bin/../lib/gcc/pic32mx/4.5.2/libgcc.a(eqsf2.o)
                0x9d024688                __nesf2
                0x9d024688                __eqsf2
 .text          0x9d0246f0       0x68 /home/gombe/workspace/machikania/origdev/pic32/compiler/pic32-tools/bin/../lib/gcc/pic32mx/4.5.2/libgcc.a(fixsfsi.o)
                0x9d0246f0                __fixsfsi

.text.__mcmp    0x9d024758       0x68
 .text.__mcmp   0x9d024758       0x68 /home/gombe/workspace/machikania/origdev/pic32/compiler/pic32-tools/bin/../lib/gcc/pic32mx/4.5.2/../../../../pic32mx/lib/libc.a(lib_a-mprec.o)
                0x9d024758                __mcmp

.rodata         0x9d0247c0       0x60
 .rodata        0x9d0247c0       0x60 /home/gombe/workspace/machikania/origdev/pic32/compiler/pic32-tools/bin/../lib/gcc/pic32mx/4.5.2/../../../../pic32mx/lib/libc.a(lib_a-dtoa.o)

.text.__assert_func
                0x9d024820       0x58
 .text.__assert_func
                0x9d024820       0x58 /home/gombe/workspace/machikania/origdev/pic32/compiler/pic32-tools/bin/../lib/gcc/pic32mx/4.5.2/../../../../pic32mx/lib/libc.a(lib_a-assert.o)
                0x9d024820                __assert_func

.text.__sseek   0x9d024878       0x50
 .text.__sseek  0x9d024878       0x50 /home/gombe/workspace/machikania/origdev/pic32/compiler/pic32-tools/bin/../lib/gcc/pic32mx/4.5.2/../../../../pic32mx/lib/libc.a(lib_a-stdio.o)
                0x9d024878                __sseek

.text.sbrk      0x9d0248c8       0x50
 .text.sbrk     0x9d0248c8       0x50 /home/gombe/workspace/machikania/origdev/pic32/compiler/pic32-tools/bin/../lib/gcc/pic32mx/4.5.2/../../../../pic32mx/lib/libpic32.a(sbrk.o)
                0x9d0248c8                sbrk

.text.__sread   0x9d024918       0x4c
 .text.__sread  0x9d024918       0x4c /home/gombe/workspace/machikania/origdev/pic32/compiler/pic32-tools/bin/../lib/gcc/pic32mx/4.5.2/../../../../pic32mx/lib/libc.a(lib_a-stdio.o)
                0x9d024918                __sread

.text._write_r  0x9d024964       0x4c
 .text._write_r
                0x9d024964       0x4c /home/gombe/workspace/machikania/origdev/pic32/compiler/pic32-tools/bin/../lib/gcc/pic32mx/4.5.2/../../../../pic32mx/lib/libc.a(lib_a-writer.o)
                0x9d024964                _write_r

.text._lseek_r  0x9d0249b0       0x4c
 .text._lseek_r
                0x9d0249b0       0x4c /home/gombe/workspace/machikania/origdev/pic32/compiler/pic32-tools/bin/../lib/gcc/pic32mx/4.5.2/../../../../pic32mx/lib/libc.a(lib_a-lseekr.o)
                0x9d0249b0                _lseek_r

.text._read_r   0x9d0249fc       0x4c
 .text._read_r  0x9d0249fc       0x4c /home/gombe/workspace/machikania/origdev/pic32/compiler/pic32-tools/bin/../lib/gcc/pic32mx/4.5.2/../../../../pic32mx/lib/libc.a(lib_a-readr.o)
                0x9d0249fc                _read_r

.rodata         0x9d024a48       0x90
 .rodata        0x9d024a48       0x48 /home/gombe/workspace/machikania/origdev/pic32/compiler/pic32-tools/bin/../lib/gcc/pic32mx/4.5.2/../../../../pic32mx/lib/libm.a(lib_a-e_rem_pio2.o)
 .rodata        0x9d024a90       0x48 /home/gombe/workspace/machikania/origdev/pic32/compiler/pic32-tools/bin/../lib/gcc/pic32mx/4.5.2/../../../../pic32mx/lib/libm.a(lib_a-k_cos.o)

.text._kill_r   0x9d024ad8       0x48
 .text._kill_r  0x9d024ad8       0x48 /home/gombe/workspace/machikania/origdev/pic32/compiler/pic32-tools/bin/../lib/gcc/pic32mx/4.5.2/../../../../pic32mx/lib/libc.a(lib_a-signalr.o)
                0x9d024ad8                _kill_r

.text._fstat_r  0x9d024b20       0x48
 .text._fstat_r
                0x9d024b20       0x48 /home/gombe/workspace/machikania/origdev/pic32/compiler/pic32-tools/bin/../lib/gcc/pic32mx/4.5.2/../../../../pic32mx/lib/libc.a(lib_a-fstatr.o)
                0x9d024b20                _fstat_r

.text           0x9d024b68       0x44
 .text          0x9d024b68       0x44 ../../pic32/compiler/pic32-tools/bin/../lib/gcc/pic32mx/4.5.2/crtend.o

.rodata         0x9d024bac       0x44
 .rodata        0x9d024bac       0x44 /home/gombe/workspace/machikania/origdev/pic32/compiler/pic32-tools/bin/../lib/gcc/pic32mx/4.5.2/../../../../pic32mx/lib/libc.a(lib_a-assert.o)

.text._sbrk_r   0x9d024bf0       0x44
 .text._sbrk_r  0x9d024bf0       0x44 /home/gombe/workspace/machikania/origdev/pic32/compiler/pic32-tools/bin/../lib/gcc/pic32mx/4.5.2/../../../../pic32mx/lib/libc.a(lib_a-sbrkr.o)
                0x9d024bf0                _sbrk_r

.text._close_r  0x9d024c34       0x44
 .text._close_r
                0x9d024c34       0x44 /home/gombe/workspace/machikania/origdev/pic32/compiler/pic32-tools/bin/../lib/gcc/pic32mx/4.5.2/../../../../pic32mx/lib/libc.a(lib_a-closer.o)
                0x9d024c34                _close_r

.text._isatty_r
                0x9d024c78       0x44
 .text._isatty_r
                0x9d024c78       0x44 /home/gombe/workspace/machikania/origdev/pic32/compiler/pic32-tools/bin/../lib/gcc/pic32mx/4.5.2/../../../../pic32mx/lib/libc.a(lib_a-isattyr.o)
                0x9d024c78                _isatty_r

.text           0x9d024cbc       0x44
 .text          0x9d024cbc       0x44 /home/gombe/workspace/machikania/origdev/pic32/compiler/pic32-tools/bin/../lib/gcc/pic32mx/4.5.2/../../../../pic32mx/lib/libpic32.a(pic32_software_reset.o)
                0x9d024cbc                __pic32_software_reset

.rodata.PIo2.PIo2
                0x9d024d00       0x40
 .rodata.PIo2.PIo2
                0x9d024d00       0x40 /home/gombe/workspace/machikania/origdev/pic32/compiler/pic32-tools/bin/../lib/gcc/pic32mx/4.5.2/../../../../pic32mx/lib/libm.a(lib_a-k_rem_pio2.o)

.rodata         0x9d024d40       0x3c
 .rodata        0x9d024d40       0x3c /home/gombe/workspace/machikania/origdev/pic32/compiler/pic32-tools/bin/../lib/gcc/pic32mx/4.5.2/../../../../pic32mx/lib/libc.a(lib_a-vfprintf.o)

.rodata         0x9d024d80       0x38
 .rodata        0x9d024d80       0x38 /home/gombe/workspace/machikania/origdev/pic32/compiler/pic32-tools/bin/../lib/gcc/pic32mx/4.5.2/../../../../pic32mx/lib/libm.a(lib_a-k_sin.o)

.text.fiprintf  0x9d024db8       0x38
 .text.fiprintf
                0x9d024db8       0x38 /home/gombe/workspace/machikania/origdev/pic32/compiler/pic32-tools/bin/../lib/gcc/pic32mx/4.5.2/../../../../pic32mx/lib/libc.a(lib_a-fiprintf.o)
                0x9d024db8                fiprintf

.text.printf    0x9d024df0       0x38
 .text.printf   0x9d024df0       0x38 /home/gombe/workspace/machikania/origdev/pic32/compiler/pic32-tools/bin/../lib/gcc/pic32mx/4.5.2/../../../../pic32mx/lib/libc.a(lib_a-printf.o)
                0x9d024df0                printf

.text._bootstrap_exception_handler
                0x9d024e28       0x38
 .text._bootstrap_exception_handler
                0x9d024e28       0x38 /home/gombe/workspace/machikania/origdev/pic32/compiler/pic32-tools/bin/../lib/gcc/pic32mx/4.5.2/../../../../pic32mx/lib/libpic32.a(default-bootstrap-exception-handler.o)
                0x9d024e28                _bootstrap_exception_handler

.text.main_entry
                0x9d024e60       0x34
 .text.main_entry
                0x9d024e60       0x34 obj/crt0.o

.text.__i2b     0x9d024e94       0x34
 .text.__i2b    0x9d024e94       0x34 /home/gombe/workspace/machikania/origdev/pic32/compiler/pic32-tools/bin/../lib/gcc/pic32mx/4.5.2/../../../../pic32mx/lib/libc.a(lib_a-mprec.o)
                0x9d024e94                __i2b

.text.__ascii_wctomb
                0x9d024ec8       0x34
 .text.__ascii_wctomb
                0x9d024ec8       0x34 /home/gombe/workspace/machikania/origdev/pic32/compiler/pic32-tools/bin/../lib/gcc/pic32mx/4.5.2/../../../../pic32mx/lib/libc.a(lib_a-wctomb_r.o)
                0x9d024ec8                __ascii_wctomb

.text.INTEnableSystemMultiVectoredInt
                0x9d024efc       0x34
 .text.INTEnableSystemMultiVectoredInt
                0x9d024efc       0x34 /home/gombe/workspace/machikania/origdev/pic32/compiler/pic32-tools/bin/../lib/gcc/pic32mx/4.5.2/../../../../pic32mx/lib/libmchp_peripheral_32MX250F128B.a(int_enable_mv_int_lib.o)
                0x9d024efc                INTEnableSystemMultiVectoredInt

.rodata         0x9d024f30       0x60
 .rodata        0x9d024f30       0x30 obj/newmain.o
 .rodata        0x9d024f60       0x30 /home/gombe/workspace/machikania/origdev/pic32/compiler/pic32-tools/bin/../lib/gcc/pic32mx/4.5.2/../../../../pic32mx/lib/libm.a(lib_a-k_rem_pio2.o)

.text.memchr    0x9d024f90       0x30
 .text.memchr   0x9d024f90       0x30 /home/gombe/workspace/machikania/origdev/pic32/compiler/pic32-tools/bin/../lib/gcc/pic32mx/4.5.2/../../../../pic32mx/lib/libc.a(lib_a-memchr.o)
                0x9d024f90                memchr

.text.memcpy    0x9d024fc0       0x30
 .text.memcpy   0x9d024fc0       0x30 /home/gombe/workspace/machikania/origdev/pic32/compiler/pic32-tools/bin/../lib/gcc/pic32mx/4.5.2/../../../../pic32mx/lib/libc.a(lib_a-memcpy.o)
                0x9d024fc0                memcpy

.vector_default
                0x9d024ff0       0x30
 .vector_default
                0x9d024ff0       0x30 /home/gombe/workspace/machikania/origdev/pic32/compiler/pic32-tools/bin/../lib/gcc/pic32mx/4.5.2/../../../../pic32mx/lib/libpic32.a(defaultinterrupt.o)
                0x9d024ff0                _DefaultInterrupt

.rodata.PIo2.PIo2
                0x9d025020       0x2c
 .rodata.PIo2.PIo2
                0x9d025020       0x2c /home/gombe/workspace/machikania/origdev/pic32/compiler/pic32-tools/bin/../lib/gcc/pic32mx/4.5.2/../../../../pic32mx/lib/libm.a(lib_a-kf_rem_pio2.o)

.text._Bfree    0x9d02504c       0x2c
 .text._Bfree   0x9d02504c       0x2c /home/gombe/workspace/machikania/origdev/pic32/compiler/pic32-tools/bin/../lib/gcc/pic32mx/4.5.2/../../../../pic32mx/lib/libc.a(lib_a-mprec.o)
                0x9d02504c                _Bfree

.text._stub_sbd_memlayout
                0x9d025078       0x2c
 .text._stub_sbd_memlayout
                0x9d025078       0x2c /home/gombe/workspace/machikania/origdev/pic32/compiler/pic32-tools/bin/../lib/gcc/pic32mx/4.5.2/../../../../pic32mx/lib/libpic32.a(sbrk.o)
                0x9d025078                _stub_sbd_memlayout
                0x9d025078                _sbd_memlayout

.rodata         0x9d0250a8       0x50
 .rodata        0x9d0250a8       0x28 obj/matrix4.o
 .rodata        0x9d0250d0       0x28 /home/gombe/workspace/machikania/origdev/pic32/compiler/pic32-tools/bin/../lib/gcc/pic32mx/4.5.2/../../../../pic32mx/lib/libc.a(lib_a-vfiprintf.o)

.text.memset    0x9d0250f8       0x28
 .text.memset   0x9d0250f8       0x28 /home/gombe/workspace/machikania/origdev/pic32/compiler/pic32-tools/bin/../lib/gcc/pic32mx/4.5.2/../../../../pic32mx/lib/libc.a(lib_a-memset.o)
                0x9d0250f8                memset

.rodata.__mprec_bigtens.__mprec_bigtens
                0x9d025120       0x28
 .rodata.__mprec_bigtens.__mprec_bigtens
                0x9d025120       0x28 /home/gombe/workspace/machikania/origdev/pic32/compiler/pic32-tools/bin/../lib/gcc/pic32mx/4.5.2/../../../../pic32mx/lib/libc.a(lib_a-mprec.o)
                0x9d025120                __mprec_bigtens

.rodata         0x9d025148       0x84
 .rodata        0x9d025148       0x24 /home/gombe/workspace/machikania/origdev/pic32/compiler/pic32-tools/bin/../lib/gcc/pic32mx/4.5.2/../../../../pic32mx/lib/libm.a(lib_a-ef_rem_pio2.o)
 .rodata        0x9d02516c       0x24 /home/gombe/workspace/machikania/origdev/pic32/compiler/pic32-tools/bin/../lib/gcc/pic32mx/4.5.2/../../../../pic32mx/lib/libm.a(lib_a-kf_cos.o)
 .rodata        0x9d025190       0x20 /home/gombe/workspace/machikania/origdev/pic32/compiler/pic32-tools/bin/../lib/gcc/pic32mx/4.5.2/../../../../pic32mx/lib/libm.a(lib_a-s_scalbn.o)
 .rodata        0x9d0251b0       0x1c /home/gombe/workspace/machikania/origdev/pic32/compiler/pic32-tools/bin/../lib/gcc/pic32mx/4.5.2/../../../../pic32mx/lib/libm.a(lib_a-kf_sin.o)

.text.copysign  0x9d0251cc       0x1c
 .text.copysign
                0x9d0251cc       0x1c /home/gombe/workspace/machikania/origdev/pic32/compiler/pic32-tools/bin/../lib/gcc/pic32mx/4.5.2/../../../../pic32mx/lib/libm.a(lib_a-s_copysign.o)
                0x9d0251cc                copysign

.text.INTRestoreInterrupts
                0x9d0251e8       0x1c
 .text.INTRestoreInterrupts
                0x9d0251e8       0x1c /home/gombe/workspace/machikania/origdev/pic32/compiler/pic32-tools/bin/../lib/gcc/pic32mx/4.5.2/../../../../pic32mx/lib/libmchp_peripheral_32MX250F128B.a(int_restore_interrupts_lib.o)
                0x9d0251e8                INTRestoreInterrupts

.rodata         0x9d025204       0x18
 .rodata        0x9d025204       0x18 /home/gombe/workspace/machikania/origdev/pic32/compiler/pic32-tools/bin/../lib/gcc/pic32mx/4.5.2/../../../../pic32mx/lib/libm.a(lib_a-kf_rem_pio2.o)

.text.abort     0x9d02521c       0x18
 .text.abort    0x9d02521c       0x18 /home/gombe/workspace/machikania/origdev/pic32/compiler/pic32-tools/bin/../lib/gcc/pic32mx/4.5.2/../../../../pic32mx/lib/libc.a(lib_a-abort.o)
                0x9d02521c                abort

.text           0x9d025234       0x30
 .text          0x9d025234       0x18 /home/gombe/workspace/machikania/origdev/pic32/compiler/pic32-tools/bin/../lib/gcc/pic32mx/4.5.2/../../../../pic32mx/lib/libc.a(lib_a-strlen.o)
                0x9d025234                strlen
 .text          0x9d02524c       0x18 /home/gombe/workspace/machikania/origdev/pic32/compiler/pic32-tools/bin/../lib/gcc/pic32mx/4.5.2/../../../../pic32mx/lib/libpic32.a(default-nmi-handler.o)
                0x9d02524c                _nmi_handler

.text.copysignf
                0x9d025264       0x14
 .text.copysignf
                0x9d025264       0x14 /home/gombe/workspace/machikania/origdev/pic32/compiler/pic32-tools/bin/../lib/gcc/pic32mx/4.5.2/../../../../pic32mx/lib/libm.a(lib_a-sf_copysign.o)
                0x9d025264                copysignf

.rodata         0x9d025278       0x14
 .rodata        0x9d025278       0x14 /home/gombe/workspace/machikania/origdev/pic32/compiler/pic32-tools/bin/../lib/gcc/pic32mx/4.5.2/../../../../pic32mx/lib/libc.a(lib_a-locale.o)

.text.fstat     0x9d02528c       0x14
 .text.fstat    0x9d02528c       0x14 /home/gombe/workspace/machikania/origdev/pic32/compiler/pic32-tools/bin/../lib/gcc/pic32mx/4.5.2/../../../../pic32mx/lib/libpic32.a(fstat.o)
                0x9d02528c                fstat

.rodata.init_jk.init_jk
                0x9d0252a0       0x10
 .rodata.init_jk.init_jk
                0x9d0252a0       0x10 /home/gombe/workspace/machikania/origdev/pic32/compiler/pic32-tools/bin/../lib/gcc/pic32mx/4.5.2/../../../../pic32mx/lib/libm.a(lib_a-k_rem_pio2.o)

.text.fabs      0x9d0252b0       0x10
 .text.fabs     0x9d0252b0       0x10 /home/gombe/workspace/machikania/origdev/pic32/compiler/pic32-tools/bin/../lib/gcc/pic32mx/4.5.2/../../../../pic32mx/lib/libm.a(lib_a-s_fabs.o)
                0x9d0252b0                fabs

.rodata         0x9d0252c0       0x10
 .rodata        0x9d0252c0       0x10 /home/gombe/workspace/machikania/origdev/pic32/compiler/pic32-tools/bin/../lib/gcc/pic32mx/4.5.2/../../../../pic32mx/lib/libm.a(lib_a-sf_scalbn.o)

.rodata.zeroes.3920.zeroes
                0x9d0252d0       0x10
 .rodata.zeroes.3920.zeroes
                0x9d0252d0       0x10 /home/gombe/workspace/machikania/origdev/pic32/compiler/pic32-tools/bin/../lib/gcc/pic32mx/4.5.2/../../../../pic32mx/lib/libc.a(lib_a-vfiprintf.o)

.rodata.blanks.3919.blanks
                0x9d0252e0       0x10
 .rodata.blanks.3919.blanks
                0x9d0252e0       0x10 /home/gombe/workspace/machikania/origdev/pic32/compiler/pic32-tools/bin/../lib/gcc/pic32mx/4.5.2/../../../../pic32mx/lib/libc.a(lib_a-vfiprintf.o)

.rodata.zeroes.3977.zeroes
                0x9d0252f0       0x10
 .rodata.zeroes.3977.zeroes
                0x9d0252f0       0x10 /home/gombe/workspace/machikania/origdev/pic32/compiler/pic32-tools/bin/../lib/gcc/pic32mx/4.5.2/../../../../pic32mx/lib/libc.a(lib_a-vfprintf.o)

.rodata.blanks.3976.blanks
                0x9d025300       0x10
 .rodata.blanks.3976.blanks
                0x9d025300       0x10 /home/gombe/workspace/machikania/origdev/pic32/compiler/pic32-tools/bin/../lib/gcc/pic32mx/4.5.2/../../../../pic32mx/lib/libc.a(lib_a-vfprintf.o)

.rodata         0x9d025310        0xc
 .rodata        0x9d025310        0xc obj/vector2.o

.rodata.init_jk.init_jk
                0x9d02531c        0xc
 .rodata.init_jk.init_jk
                0x9d02531c        0xc /home/gombe/workspace/machikania/origdev/pic32/compiler/pic32-tools/bin/../lib/gcc/pic32mx/4.5.2/../../../../pic32mx/lib/libm.a(lib_a-kf_rem_pio2.o)

.text._cleanup_r
                0x9d025328        0xc
 .text._cleanup_r
                0x9d025328        0xc /home/gombe/workspace/machikania/origdev/pic32/compiler/pic32-tools/bin/../lib/gcc/pic32mx/4.5.2/../../../../pic32mx/lib/libc.a(lib_a-findfp.o)
                0x9d025328                _cleanup_r

.text.__locale_charset
                0x9d025334        0xc
 .text.__locale_charset
                0x9d025334        0xc /home/gombe/workspace/machikania/origdev/pic32/compiler/pic32-tools/bin/../lib/gcc/pic32mx/4.5.2/../../../../pic32mx/lib/libc.a(lib_a-locale.o)
                0x9d025334                __locale_charset

.text._localeconv_r
                0x9d025340        0xc
 .text._localeconv_r
                0x9d025340        0xc /home/gombe/workspace/machikania/origdev/pic32/compiler/pic32-tools/bin/../lib/gcc/pic32mx/4.5.2/../../../../pic32mx/lib/libc.a(lib_a-locale.o)
                0x9d025340                _localeconv_r

.rodata.p05.2491.p05
                0x9d02534c        0xc
 .rodata.p05.2491.p05
                0x9d02534c        0xc /home/gombe/workspace/machikania/origdev/pic32/compiler/pic32-tools/bin/../lib/gcc/pic32mx/4.5.2/../../../../pic32mx/lib/libc.a(lib_a-mprec.o)

.text.raise     0x9d025358        0xc
 .text.raise    0x9d025358        0xc /home/gombe/workspace/machikania/origdev/pic32/compiler/pic32-tools/bin/../lib/gcc/pic32mx/4.5.2/../../../../pic32mx/lib/libc.a(lib_a-signal.o)
                0x9d025358                raise

.text.fclose    0x9d025364        0xc
 .text.fclose   0x9d025364        0xc /home/gombe/workspace/machikania/origdev/pic32/compiler/pic32-tools/bin/../lib/gcc/pic32mx/4.5.2/../../../../pic32mx/lib/libc.a(lib_a-fclose.o)
                0x9d025364                fclose

.text.fabsf     0x9d025370        0x8
 .text.fabsf    0x9d025370        0x8 /home/gombe/workspace/machikania/origdev/pic32/compiler/pic32-tools/bin/../lib/gcc/pic32mx/4.5.2/../../../../pic32mx/lib/libm.a(lib_a-sf_fabs.o)
                0x9d025370                fabsf

.rodata         0x9d025378        0x8
 .rodata        0x9d025378        0x8 /home/gombe/workspace/machikania/origdev/pic32/compiler/pic32-tools/bin/../lib/gcc/pic32mx/4.5.2/../../../../pic32mx/lib/libm.a(lib_a-s_floor.o)

.text.__locale_mb_cur_max
                0x9d025380        0x8
 .text.__locale_mb_cur_max
                0x9d025380        0x8 /home/gombe/workspace/machikania/origdev/pic32/compiler/pic32-tools/bin/../lib/gcc/pic32mx/4.5.2/../../../../pic32mx/lib/libc.a(lib_a-locale.o)
                0x9d025380                __locale_mb_cur_max

.text.__malloc_lock
                0x9d025388        0x8
 .text.__malloc_lock
                0x9d025388        0x8 /home/gombe/workspace/machikania/origdev/pic32/compiler/pic32-tools/bin/../lib/gcc/pic32mx/4.5.2/../../../../pic32mx/lib/libc.a(lib_a-mlock.o)
                0x9d025388                __malloc_lock

.text.__malloc_unlock
                0x9d025390        0x8
 .text.__malloc_unlock
                0x9d025390        0x8 /home/gombe/workspace/machikania/origdev/pic32/compiler/pic32-tools/bin/../lib/gcc/pic32mx/4.5.2/../../../../pic32mx/lib/libc.a(lib_a-mlock.o)
                0x9d025390                __malloc_unlock

.text._getpid_r
                0x9d025398        0x8
 .text._getpid_r
                0x9d025398        0x8 /home/gombe/workspace/machikania/origdev/pic32/compiler/pic32-tools/bin/../lib/gcc/pic32mx/4.5.2/../../../../pic32mx/lib/libc.a(lib_a-signalr.o)
                0x9d025398                _getpid_r

.text.__sclose  0x9d0253a0        0x8
 .text.__sclose
                0x9d0253a0        0x8 /home/gombe/workspace/machikania/origdev/pic32/compiler/pic32-tools/bin/../lib/gcc/pic32mx/4.5.2/../../../../pic32mx/lib/libc.a(lib_a-stdio.o)
                0x9d0253a0                __sclose

.text._on_reset
                0x9d0253a8        0x8
 .text._on_reset
                0x9d0253a8        0x8 /home/gombe/workspace/machikania/origdev/pic32/compiler/pic32-tools/bin/../lib/gcc/pic32mx/4.5.2/../../../../pic32mx/lib/libpic32.a(default-on-reset.o)
                0x9d0253a8                _on_reset

.text._on_bootstrap
                0x9d0253b0        0x8
 .text._on_bootstrap
                0x9d0253b0        0x8 /home/gombe/workspace/machikania/origdev/pic32/compiler/pic32-tools/bin/../lib/gcc/pic32mx/4.5.2/../../../../pic32mx/lib/libpic32.a(default-on-bootstrap.o)
                0x9d0253b0                _on_bootstrap

.text._exit     0x9d0253b8        0x8
 .text._exit    0x9d0253b8        0x8 /home/gombe/workspace/machikania/origdev/pic32/compiler/pic32-tools/bin/../lib/gcc/pic32mx/4.5.2/../../../../pic32mx/lib/libpic32.a(_exit.o)
                0x9d0253b8                _exit

.text.isatty    0x9d0253c0        0x8
 .text.isatty   0x9d0253c0        0x8 /home/gombe/workspace/machikania/origdev/pic32/compiler/pic32-tools/bin/../lib/gcc/pic32mx/4.5.2/../../../../pic32mx/lib/libpic32.a(isatty.o)
                0x9d0253c0                isatty

.text.lseek     0x9d0253c8        0x8
 .text.lseek    0x9d0253c8        0x8 /home/gombe/workspace/machikania/origdev/pic32/compiler/pic32-tools/bin/../lib/gcc/pic32mx/4.5.2/../../../../pic32mx/lib/libpic32.a(lseek.o)
                0x9d0253c8                lseek

.text.close     0x9d0253d0        0x8
 .text.close    0x9d0253d0        0x8 /home/gombe/workspace/machikania/origdev/pic32/compiler/pic32-tools/bin/../lib/gcc/pic32mx/4.5.2/../../../../pic32mx/lib/libpic32.a(close.o)
                0x9d0253d0                close

.text.kill      0x9d0253d8        0x8
 .text.kill     0x9d0253d8        0x8 /home/gombe/workspace/machikania/origdev/pic32/compiler/pic32-tools/bin/../lib/gcc/pic32mx/4.5.2/../../../../pic32mx/lib/libpic32.a(kill.o)
                0x9d0253d8                kill

.text.getpid    0x9d0253e0        0x8
 .text.getpid   0x9d0253e0        0x8 /home/gombe/workspace/machikania/origdev/pic32/compiler/pic32-tools/bin/../lib/gcc/pic32mx/4.5.2/../../../../pic32mx/lib/libpic32.a(getpid.o)
                0x9d0253e0                getpid

.text.INTDisableInterrupts
                0x9d0253e8        0x8
 .text.INTDisableInterrupts
                0x9d0253e8        0x8 /home/gombe/workspace/machikania/origdev/pic32/compiler/pic32-tools/bin/../lib/gcc/pic32mx/4.5.2/../../../../pic32mx/lib/libmchp_peripheral_32MX250F128B.a(int_disable_interrupts_lib.o)
                0x9d0253e8                INTDisableInterrupts

.text.INTEnableInterrupts
                0x9d0253f0        0x8
 .text.INTEnableInterrupts
                0x9d0253f0        0x8 /home/gombe/workspace/machikania/origdev/pic32/compiler/pic32-tools/bin/../lib/gcc/pic32mx/4.5.2/../../../../pic32mx/lib/libmchp_peripheral_32MX250F128B.a(int_enable_interrupts_lib.o)
                0x9d0253f0                INTEnableInterrupts

.text.__errno   0x9d0253f8        0x8
 .text.__errno  0x9d0253f8        0x8 /home/gombe/workspace/machikania/origdev/pic32/compiler/pic32-tools/bin/../lib/gcc/pic32mx/4.5.2/../../../../pic32mx/lib/libc.a(lib_a-errno.o)
                0x9d0253f8                __errno

.rodata         0x9d0240bc        0x4
 .rodata        0x9d0240bc        0x4 /home/gombe/workspace/machikania/origdev/pic32/compiler/pic32-tools/bin/../lib/gcc/pic32mx/4.5.2/../../../../pic32mx/lib/libm.a(lib_a-sf_floor.o)

.rodata         0x9d024d7c        0x4
 .rodata        0x9d024d7c        0x4 /home/gombe/workspace/machikania/origdev/pic32/compiler/pic32-tools/bin/../lib/gcc/pic32mx/4.5.2/../../../../pic32mx/lib/libc.a(lib_a-impure.o)
